
Loader650_Data/Release/Loader650.axf:     file format elf32-tradlittlemips
Loader650_Data/Release/Loader650.axf
architecture: mips:isa32r2, flags 0x00000112:
EXEC_P, HAS_SYMS, D_PAGED
start address 0xa7f00028

Program Header:
    LOAD off    0x00010000 vaddr 0xa7f00000 paddr 0x00000000 align 2**16
         filesz 0x000006a8 memsz 0x000006a8 flags rwx
    LOAD off    0x00014000 vaddr 0x8ff04000 paddr 0x000006a8 align 2**16
         filesz 0x00000260 memsz 0x00000260 flags r-x
    LOAD off    0x00015000 vaddr 0x87f05000 paddr 0x00000908 align 2**16
         filesz 0x00003f3c memsz 0x00004014 flags rwx
private flags = 70001001: [abi=O32] [mips32r2] [not 32bitmode] [noreorder]

Sections:
Idx Name          Size      VMA       LMA       File off  Algn
  0 .BOOT_EXEC    00000030  a7f00000  00000000  00010000  2**2
                  CONTENTS, ALLOC, LOAD, CODE
  1 .LOADER_CONFIGRAM 000001f0  a7f00030  00000030  00010030  2**2
                  CONTENTS, ALLOC, LOAD, DATA
  2 .internal_stg_type 00000004  a7f00220  00000220  00010220  2**0
                  CONTENTS, ALLOC, LOAD, DATA
  3 .internal_stg_version 00000004  a7f00224  00000224  00010224  2**2
                  CONTENTS, ALLOC, LOAD, DATA
  4 .LOADER_REMAP 00000478  a7f00230  00000230  00010230  2**2
                  CONTENTS, ALLOC, LOAD, READONLY, CODE
  5 .LOADER_EXEC  00000260  8ff04000  000006a8  00014000  2**2
                  CONTENTS, ALLOC, LOAD, READONLY, CODE
  6 .text         000000fc  87f05000  00000908  00015000  2**2
                  CONTENTS, ALLOC, LOAD, READONLY, CODE
  7 .text.bl_spiIdentify 0000008c  87f050fc  00000a04  000150fc  2**2
                  CONTENTS, ALLOC, LOAD, READONLY, CODE
  8 .text.bl_displayErrMsg 0000001c  87f05188  00000a90  00015188  2**2
                  CONTENTS, ALLOC, LOAD, READONLY, CODE
  9 .text.bl_checkFW 000000f8  87f051a4  00000aac  000151a4  2**2
                  CONTENTS, ALLOC, LOAD, READONLY, CODE
 10 .text.bl_mainFlow 000008bc  87f0529c  00000ba4  0001529c  2**2
                  CONTENTS, ALLOC, LOAD, READONLY, CODE
 11 .text.Toggle_LED_R 00000088  87f05b58  00001460  00015b58  2**2
                  CONTENTS, ALLOC, LOAD, READONLY, CODE
 12 .text.BL_PostHandle 000000a0  87f05be0  000014e8  00015be0  2**2
                  CONTENTS, ALLOC, LOAD, READONLY, CODE
 13 .text.fat_getclusterstatus 000000f0  87f05c80  00001588  00015c80  2**2
                  CONTENTS, ALLOC, LOAD, READONLY, CODE
 14 .text.fat_getnextcluster 00000160  87f05d70  00001678  00015d70  2**2
                  CONTENTS, ALLOC, LOAD, READONLY, CODE
 15 .text.fat_getmaxclusternumber 00000054  87f05ed0  000017d8  00015ed0  2**2
                  CONTENTS, ALLOC, LOAD, READONLY, CODE
 16 .text.fat_getfirstdir_entry 000000f0  87f05f24  0000182c  00015f24  2**2
                  CONTENTS, ALLOC, LOAD, READONLY, CODE
 17 .text.fat_regfilesystem 00000024  87f06014  0000191c  00016014  2**2
                  CONTENTS, ALLOC, LOAD, READONLY, CODE
 18 .text.fat_close_rootfile 00000034  87f06038  00001940  00016038  2**2
                  CONTENTS, ALLOC, LOAD, READONLY, CODE
 19 .text.fat_read_rootfile 0000019c  87f0606c  00001974  0001606c  2**2
                  CONTENTS, ALLOC, LOAD, READONLY, CODE
 20 .text.fat_open_rootfile 0000036c  87f06208  00001b10  00016208  2**2
                  CONTENTS, ALLOC, LOAD, READONLY, CODE
 21 .text.fat_initFAT 000003e8  87f06574  00001e7c  00016574  2**2
                  CONTENTS, ALLOC, LOAD, READONLY, CODE
 22 .text.UTL_setDrvTmpBufferAddress 00000024  87f0695c  00002264  0001695c  2**2
                  CONTENTS, ALLOC, LOAD, READONLY, CODE
 23 .text.memset  000000ac  87f06980  00002288  00016980  2**2
                  CONTENTS, ALLOC, LOAD, READONLY, CODE
 24 .text.memcpy  00000044  87f06a2c  00002334  00016a2c  2**2
                  CONTENTS, ALLOC, LOAD, READONLY, CODE
 25 .text.strncmp 00000054  87f06a70  00002378  00016a70  2**2
                  CONTENTS, ALLOC, LOAD, READONLY, CODE
 26 .text.strchr  00000044  87f06ac4  000023cc  00016ac4  2**2
                  CONTENTS, ALLOC, LOAD, READONLY, CODE
 27 .text.memcmp  00000044  87f06b08  00002410  00016b08  2**2
                  CONTENTS, ALLOC, LOAD, READONLY, CODE
 28 .text.cpu_cleanDCacheBlock 00000068  87f06b4c  00002454  00016b4c  2**2
                  CONTENTS, ALLOC, LOAD, READONLY, CODE
 29 .text.CPUflushWriteCache 00000034  87f06bb4  000024bc  00016bb4  2**2
                  CONTENTS, ALLOC, LOAD, READONLY, CODE
 30 .text.cpu_cleanDCache 00000028  87f06be8  000024f0  00016be8  2**2
                  CONTENTS, ALLOC, LOAD, READONLY, CODE
 31 .text.cpu_invalidateDCacheBlock 00000068  87f06c10  00002518  00016c10  2**2
                  CONTENTS, ALLOC, LOAD, READONLY, CODE
 32 .text.CPUflushReadCache 00000074  87f06c78  00002580  00016c78  2**2
                  CONTENTS, ALLOC, LOAD, READONLY, CODE
 33 .text.fLib_PutSerialChar 0000003c  87f06cec  000025f4  00016cec  2**2
                  CONTENTS, ALLOC, LOAD, READONLY, CODE
 34 .text.fLib_PutSerialStr 0000004c  87f06d28  00002630  00016d28  2**2
                  CONTENTS, ALLOC, LOAD, READONLY, CODE
 35 .text.uart_openSystemUART 00000090  87f06d74  0000267c  00016d74  2**2
                  CONTENTS, ALLOC, LOAD, READONLY, CODE
 36 .text.rtc_resetShutDownTimer 00000028  87f06e04  0000270c  00016e04  2**2
                  CONTENTS, ALLOC, LOAD, READONLY, CODE
 37 .text.gpio_setDir 00000060  87f06e2c  00002734  00016e2c  2**2
                  CONTENTS, ALLOC, LOAD, READONLY, CODE
 38 .text.gpio_setPin 0000003c  87f06e8c  00002794  00016e8c  2**2
                  CONTENTS, ALLOC, LOAD, READONLY, CODE
 39 .text.gpio_clearPin 0000003c  87f06ec8  000027d0  00016ec8  2**2
                  CONTENTS, ALLOC, LOAD, READONLY, CODE
 40 .text.gpio_getPin 00000040  87f06f04  0000280c  00016f04  2**2
                  CONTENTS, ALLOC, LOAD, READONLY, CODE
 41 .text.timer_delay 00000070  87f06f44  0000284c  00016f44  2**2
                  CONTENTS, ALLOC, LOAD, READONLY, CODE
 42 .text.timer_getLdrElapse 00000028  87f06fb4  000028bc  00016fb4  2**2
                  CONTENTS, ALLOC, LOAD, READONLY, CODE
 43 .text.SDHostSimpleCommand 000000e0  87f06fdc  000028e4  00016fdc  2**2
                  CONTENTS, ALLOC, LOAD, READONLY, CODE
 44 .text.SDHostDataCommand 0000013c  87f070bc  000029c4  000170bc  2**2
                  CONTENTS, ALLOC, LOAD, READONLY, CODE
 45 .text.card_close 00000038  87f071f8  00002b00  000171f8  2**2
                  CONTENTS, ALLOC, LOAD, READONLY, CODE
 46 .text.card_open 0000033c  87f07230  00002b38  00017230  2**2
                  CONTENTS, ALLOC, LOAD, READONLY, CODE
 47 .text.CardReadSector 0000016c  87f0756c  00002e74  0001756c  2**2
                  CONTENTS, ALLOC, LOAD, READONLY, CODE
 48 .text.spiFlash_eraseSector 00000118  87f076d8  00002fe0  000176d8  2**2
                  CONTENTS, ALLOC, LOAD, READONLY, CODE
 49 .text.spiFlash_waitReady 000000cc  87f077f0  000030f8  000177f0  2**2
                  CONTENTS, ALLOC, LOAD, READONLY, CODE
 50 .text.flash_close 00000044  87f078bc  000031c4  000178bc  2**2
                  CONTENTS, ALLOC, LOAD, READONLY, CODE
 51 .text.flash_getBlockSize 00000020  87f07900  00003208  00017900  2**2
                  CONTENTS, ALLOC, LOAD, READONLY, CODE
 52 .text.flash_setReservedBadBlockNumber 0000001c  87f07920  00003228  00017920  2**2
                  CONTENTS, ALLOC, LOAD, READONLY, CODE
 53 .text.flash_getTotalSize 00000024  87f0793c  00003244  0001793c  2**2
                  CONTENTS, ALLOC, LOAD, READONLY, CODE
 54 .text.flash_installAccessCB 00000024  87f07960  00003268  00017960  2**2
                  CONTENTS, ALLOC, LOAD, READONLY, CODE
 55 .text.flash_installIdentifyCB 00000024  87f07984  0000328c  00017984  2**2
                  CONTENTS, ALLOC, LOAD, READONLY, CODE
 56 .text.spi_writeReadData 00000114  87f079a8  000032b0  000179a8  2**2
                  CONTENTS, ALLOC, LOAD, READONLY, CODE
 57 .text.flash_writeSectors 000007f4  87f07abc  000033c4  00017abc  2**2
                  CONTENTS, ALLOC, LOAD, READONLY, CODE
 58 .text.flash_readSectors 00000578  87f082b0  00003bb8  000182b0  2**2
                  CONTENTS, ALLOC, LOAD, READONLY, CODE
 59 .text.flash_open 00000458  87f08828  00004130  00018828  2**2
                  CONTENTS, ALLOC, LOAD, READONLY, CODE
 60 .text.Dec2HexStr 00000074  87f08c80  00004588  00018c80  2**2
                  CONTENTS, ALLOC, LOAD, READONLY, CODE
 61 .data         0000005c  87f08cf4  000045fc  00018cf4  2**2
                  CONTENTS, ALLOC, LOAD, DATA
 62 .rodata.str1.4 000001ec  87f08d50  00004658  00018d50  2**2
                  CONTENTS, ALLOC, LOAD, READONLY, DATA
 63 .bss          000000d8  87f08f3c  00004844  00018f3c  2**2
                  ALLOC
 64 .reginfo      00000018  00000000  00000000  00018f3c  2**2
                  CONTENTS, READONLY, LINK_ONCE_SAME_SIZE
 65 .comment      000002a8  00000000  00000000  00018f54  2**0
                  CONTENTS, READONLY
 66 .gnu.attributes 00000010  00000000  00000000  000191fc  2**0
                  CONTENTS, READONLY
SYMBOL TABLE:
a7f00000 l    d  .BOOT_EXEC	00000000 .BOOT_EXEC
a7f00030 l    d  .LOADER_CONFIGRAM	00000000 .LOADER_CONFIGRAM
a7f00220 l    d  .internal_stg_type	00000000 .internal_stg_type
a7f00224 l    d  .internal_stg_version	00000000 .internal_stg_version
a7f00230 l    d  .LOADER_REMAP	00000000 .LOADER_REMAP
8ff04000 l    d  .LOADER_EXEC	00000000 .LOADER_EXEC
87f05000 l    d  .text	00000000 .text
87f050fc l    d  .text.bl_spiIdentify	00000000 .text.bl_spiIdentify
87f05188 l    d  .text.bl_displayErrMsg	00000000 .text.bl_displayErrMsg
87f051a4 l    d  .text.bl_checkFW	00000000 .text.bl_checkFW
87f0529c l    d  .text.bl_mainFlow	00000000 .text.bl_mainFlow
87f05b58 l    d  .text.Toggle_LED_R	00000000 .text.Toggle_LED_R
87f05be0 l    d  .text.BL_PostHandle	00000000 .text.BL_PostHandle
87f05c80 l    d  .text.fat_getclusterstatus	00000000 .text.fat_getclusterstatus
87f05d70 l    d  .text.fat_getnextcluster	00000000 .text.fat_getnextcluster
87f05ed0 l    d  .text.fat_getmaxclusternumber	00000000 .text.fat_getmaxclusternumber
87f05f24 l    d  .text.fat_getfirstdir_entry	00000000 .text.fat_getfirstdir_entry
87f06014 l    d  .text.fat_regfilesystem	00000000 .text.fat_regfilesystem
87f06038 l    d  .text.fat_close_rootfile	00000000 .text.fat_close_rootfile
87f0606c l    d  .text.fat_read_rootfile	00000000 .text.fat_read_rootfile
87f06208 l    d  .text.fat_open_rootfile	00000000 .text.fat_open_rootfile
87f06574 l    d  .text.fat_initFAT	00000000 .text.fat_initFAT
87f0695c l    d  .text.UTL_setDrvTmpBufferAddress	00000000 .text.UTL_setDrvTmpBufferAddress
87f06980 l    d  .text.memset	00000000 .text.memset
87f06a2c l    d  .text.memcpy	00000000 .text.memcpy
87f06a70 l    d  .text.strncmp	00000000 .text.strncmp
87f06ac4 l    d  .text.strchr	00000000 .text.strchr
87f06b08 l    d  .text.memcmp	00000000 .text.memcmp
87f06b4c l    d  .text.cpu_cleanDCacheBlock	00000000 .text.cpu_cleanDCacheBlock
87f06bb4 l    d  .text.CPUflushWriteCache	00000000 .text.CPUflushWriteCache
87f06be8 l    d  .text.cpu_cleanDCache	00000000 .text.cpu_cleanDCache
87f06c10 l    d  .text.cpu_invalidateDCacheBlock	00000000 .text.cpu_invalidateDCacheBlock
87f06c78 l    d  .text.CPUflushReadCache	00000000 .text.CPUflushReadCache
87f06cec l    d  .text.fLib_PutSerialChar	00000000 .text.fLib_PutSerialChar
87f06d28 l    d  .text.fLib_PutSerialStr	00000000 .text.fLib_PutSerialStr
87f06d74 l    d  .text.uart_openSystemUART	00000000 .text.uart_openSystemUART
87f06e04 l    d  .text.rtc_resetShutDownTimer	00000000 .text.rtc_resetShutDownTimer
87f06e2c l    d  .text.gpio_setDir	00000000 .text.gpio_setDir
87f06e8c l    d  .text.gpio_setPin	00000000 .text.gpio_setPin
87f06ec8 l    d  .text.gpio_clearPin	00000000 .text.gpio_clearPin
87f06f04 l    d  .text.gpio_getPin	00000000 .text.gpio_getPin
87f06f44 l    d  .text.timer_delay	00000000 .text.timer_delay
87f06fb4 l    d  .text.timer_getLdrElapse	00000000 .text.timer_getLdrElapse
87f06fdc l    d  .text.SDHostSimpleCommand	00000000 .text.SDHostSimpleCommand
87f070bc l    d  .text.SDHostDataCommand	00000000 .text.SDHostDataCommand
87f071f8 l    d  .text.card_close	00000000 .text.card_close
87f07230 l    d  .text.card_open	00000000 .text.card_open
87f0756c l    d  .text.CardReadSector	00000000 .text.CardReadSector
87f076d8 l    d  .text.spiFlash_eraseSector	00000000 .text.spiFlash_eraseSector
87f077f0 l    d  .text.spiFlash_waitReady	00000000 .text.spiFlash_waitReady
87f078bc l    d  .text.flash_close	00000000 .text.flash_close
87f07900 l    d  .text.flash_getBlockSize	00000000 .text.flash_getBlockSize
87f07920 l    d  .text.flash_setReservedBadBlockNumber	00000000 .text.flash_setReservedBadBlockNumber
87f0793c l    d  .text.flash_getTotalSize	00000000 .text.flash_getTotalSize
87f07960 l    d  .text.flash_installAccessCB	00000000 .text.flash_installAccessCB
87f07984 l    d  .text.flash_installIdentifyCB	00000000 .text.flash_installIdentifyCB
87f079a8 l    d  .text.spi_writeReadData	00000000 .text.spi_writeReadData
87f07abc l    d  .text.flash_writeSectors	00000000 .text.flash_writeSectors
87f082b0 l    d  .text.flash_readSectors	00000000 .text.flash_readSectors
87f08828 l    d  .text.flash_open	00000000 .text.flash_open
87f08c80 l    d  .text.Dec2HexStr	00000000 .text.Dec2HexStr
87f08cf4 l    d  .data	00000000 .data
87f08d50 l    d  .rodata.str1.4	00000000 .rodata.str1.4
87f08f3c l    d  .bss	00000000 .bss
00000000 l    d  .reginfo	00000000 .reginfo
00000000 l    d  .comment	00000000 .comment
00000000 l    d  .gnu.attributes	00000000 .gnu.attributes
a7f00000 l       .BOOT_EXEC	00000000 PowerOnReset
a7f00004 l       .BOOT_EXEC	00000000 LDRAlign
a7f00008 l       .BOOT_EXEC	00000000 CompressBase
a7f0000c l       .BOOT_EXEC	00000000 CalibrationDutyReg
a7f00010 l       .BOOT_EXEC	00000000 DDR_PARAM0
a7f00014 l       .BOOT_EXEC	00000000 DDR_PARAM1
a7f00018 l       .BOOT_EXEC	00000000 DDR_PARAM2
a7f0001c l       .BOOT_EXEC	00000000 DDR_PARAM3
a7f00020 l       .BOOT_EXEC	00000000 DDR_PARAM4
a7f00024 l       .BOOT_EXEC	00000000 DDR_PARAM5
00000000 l    df *ABS*	00000000 configramLZ.c
00000000 l    df *ABS*	00000000 configramFreqParam.c
00000000 l    df *ABS*	00000000 nand_tbl_version.c
a7f00230 l       .LOADER_REMAP	00000000 isr
a7f002a4 l       .LOADER_REMAP	00000000 chip_version_ok
a7f0029c l       .LOADER_REMAP	00000000 boot_block
a7f002ec l       .LOADER_REMAP	00000000 start_wait1us_1
a7f00310 l       .LOADER_REMAP	00000000 start_wait1us_2
a7f0032c l       .LOADER_REMAP	00000000 start_wait1us_3
a7f0046c l       .LOADER_REMAP	00000000 wait_hdmi_pd_time
a7f004b0 l       .LOADER_REMAP	00000000 exp_table
a7f004dc l       .LOADER_REMAP	00000000 isr_table
a7f00500 l       .LOADER_REMAP	00000000 clearbss
a7f00534 l       .LOADER_REMAP	00000000 start_wait1us_10
a7f00558 l       .LOADER_REMAP	00000000 start_wait1us_11
a7f00574 l       .LOADER_REMAP	00000000 init_stack
a7f0067c l       .LOADER_REMAP	00000000 pTopOfStack
a7f00680 l       .LOADER_REMAP	00000000 pBaseOfStack
a7f005c0 l       .LOADER_REMAP	00000000 _init_shadow_reg1_start
a7f005f4 l       .LOADER_REMAP	00000000 _init_shadow_reg1_done
a7f0061c l       .LOADER_REMAP	00000000 __init_copy_main_code
a7f00674 l       .LOADER_REMAP	00000000 INT_LOOP
a7f006a0 l       .LOADER_REMAP	00000000 EXP_LOOP
00000000 l    df *ABS*	00000000 main.c
00000000 l    df *ABS*	00000000 Cache.c
00000000 l    df *ABS*	00000000 lz.c
00000000 l    df *ABS*	00000000 bl_func.c
87f050fc l     F .text.bl_spiIdentify	0000008c bl_spiIdentify
87f05188 l     F .text.bl_displayErrMsg	0000001c bl_displayErrMsg
87f051a4 l     F .text.bl_checkFW	000000f8 bl_checkFW
87f08d30 l     O .data	00000012 FWErrorMsg
87f08f5c l     O .bss	00000004 g_heapBufferAddr
87f08f58 l     O .bss	00000004 g_uiTmpBufferAddr
87f08f50 l     O .bss	00000004 g_uiUpdateBootloaderBufAddr
87f08f48 l     O .bss	00000004 g_uiBootRevservedNandBufAddr
87f08f4c l     O .bss	00000004 g_uiUpdateMainBinBufAddr
87f08f54 l     O .bss	00000004 g_uiFWTestBinBufAddr
87f08d18 l     O .data	00000016 LoaderErrorMsg
87f08d08 l     O .data	0000000e RWErrorMsg
87f08f44 l     O .bss	00000004 uiCnt.1287
00000000 l    df *ABS*	00000000 fat.c
87f05c80 l     F .text.fat_getclusterstatus	000000f0 fat_getclusterstatus
87f08f70 l     O .bss	00000060 FileSys
87f05d70 l     F .text.fat_getnextcluster	00000160 fat_getnextcluster
87f08f64 l     O .bss	00000004 ui32FATPages
87f05ed0 l     F .text.fat_getmaxclusternumber	00000054 fat_getmaxclusternumber
87f05f24 l     F .text.fat_getfirstdir_entry	000000f0 fat_getfirstdir_entry
87f08fd0 l     O .bss	00000010 RootFileHandle
87f08f60 l     O .bss	00000004 gFatAccessCallBack
87f08f6c l     O .bss	00000004 uiFATBufferSize
87f08f68 l     O .bss	00000004 uiBufSize
87f08d44 l     O .data	00000004 uiBufAddr
00000000 l    df *ABS*	00000000 global.c
00000000 l    df *ABS*	00000000 string.c
00000000 l    df *ABS*	00000000 fuart.c
00000000 l    df *ABS*	00000000 rtc.c
00000000 l    df *ABS*	00000000 gpio.c
00000000 l    df *ABS*	00000000 Timer.c
00000000 l    df *ABS*	00000000 SDIO1.c
87f06fdc l     F .text.SDHostSimpleCommand	000000e0 SDHostSimpleCommand
87f070bc l     F .text.SDHostDataCommand	0000013c SDHostDataCommand
87f08fe0 l     O .bss	00000008 SDContext
87f0756c l     F .text.CardReadSector	0000016c CardReadSector
00000000 l    df *ABS*	00000000 spi.c
87f076d8 l     F .text.spiFlash_eraseSector	00000118 spiFlash_eraseSector
87f077f0 l     F .text.spiFlash_waitReady	000000cc spiFlash_waitReady
87f08ff4 l     O .bss	00000004 uiSpiFlashSize
87f08d4c l     O .data	00000004 guiSpiClkDiv
87f08ff0 l     O .bss	00000004 gSpiProgramCallBack
87f08fec l     O .bss	00000004 gSpiIdentifyCallBack
87f08fe8 l     O .bss	00000004 bQuadConfigured
87f079a8 l     F .text.spi_writeReadData	00000114 spi_writeReadData
87f08ffc l     O .bss	00000004 bSupportEWSR
87f08ff8 l     O .bss	00000004 bSupportAAI
87f09000 l     O .bss	00000004 uiQuadReadType
87f09004 l     O .bss	00000004 bDualRead
00000000 l    df *ABS*	00000000 Utility.c
87f0606c g     F .text.fat_read_rootfile	0000019c fat_read_rootfile
87f06cec g     F .text.fLib_PutSerialChar	0000003c fLib_PutSerialChar
87f06f44 g     F .text.timer_delay	00000070 timer_delay
87f05000 g       .text	00000000 _loader_exec_compres_start
87f0793c g     F .text.flash_getTotalSize	00000024 flash_getTotalSize
a7f006a8 g       .LOADER_REMAP	00000000 _load_vector_exp_table_end_base
a7f00658 g     O .LOADER_REMAP	00000000 INT_Handler
87f06c10 g     F .text.cpu_invalidateDCacheBlock	00000068 cpu_invalidateDCacheBlock
87f07984 g     F .text.flash_installIdentifyCB	00000024 flash_installIdentifyCB
a7f00030 g       .LOADER_CONFIGRAM	00000000 _load_LOADER_CONFIGRAM_start_base
a7f00230 g       .LOADER_REMAP	00000000 _load_vector_int_table_start_base
87f08cf8 g     O .data	00000004 UPDATE_LOADER_NAME
87f05040 g     F .text	0000002c sys_dcache_flush_addr
8ff040b4 g     F .LOADER_EXEC	0000005c CPUInvalidateICacheAll
00000000       O *UND*	00000000 _boot
87f06a2c g     F .text.memcpy	00000044 memcpy
87f08d00 g     O .data	00000004 LOADER_START_STR
a7f001f0 g       .LOADER_CONFIGRAM	00000000 _load_LOADER_CONFIGRAM_end_base
87f08d04 g     O .data	00000004 UPDATE_CALFW_NAME
87f082b0 g     F .text.flash_readSectors	00000578 flash_readSectors
87f06e8c g     F .text.gpio_setPin	0000003c gpio_setPin
87f06b4c g     F .text.cpu_cleanDCacheBlock	00000068 cpu_cleanDCacheBlock
87f06f04 g     F .text.gpio_getPin	00000040 gpio_getPin
87f07960 g     F .text.flash_installAccessCB	00000024 flash_installAccessCB
87f06be8 g     F .text.cpu_cleanDCache	00000028 cpu_cleanDCache
87f0695c g     F .text.UTL_setDrvTmpBufferAddress	00000024 UTL_setDrvTmpBufferAddress
87f050fc g       *ABS*	00000000 _load_general_var_base
87f08828 g     F .text.flash_open	00000458 flash_open
a7f00684 g     O .LOADER_REMAP	00000000 EXP_Handler
00000000         *UND*	00000000 sys_icache_invalidate_addr
87f07920 g     F .text.flash_setReservedBadBlockNumber	0000001c flash_setReservedBadBlockNumber
87f06fb4 g     F .text.timer_getLdrElapse	00000028 timer_getLdrElapse
87f05b58 g     F .text.Toggle_LED_R	00000088 Toggle_LED_R
87f06d74 g     F .text.uart_openSystemUART	00000090 uart_openSystemUART
87f07230 g     F .text.card_open	0000033c card_open
a7f0027c g       .LOADER_REMAP	00000000 _load_vector_int_table_end_base
87f09014 g       .bss	00000000 _image_load_reset_zi_base
87f08f40 g     O .bss	00000004 TopOfStack
a7f00028 g     F .BOOT_EXEC	00000008 __start
a7f00228 g       .internal_stg_version	00000000 _load_nand_table_end_base
a7f00684 g       .LOADER_REMAP	00000000 _load_LOADER_REMAP_end_base
87f0529c g     F .text.bl_mainFlow	000008bc bl_mainFlow
a7f00030 g       .BOOT_EXEC	00000000 _load_BOOT_EXEC_end_base
87f06a70 g     F .text.strncmp	00000054 strncmp
87f078bc g     F .text.flash_close	00000044 flash_close
87f05000 g     F .text	00000014 sys_dcache_flush_index
87f06e04 g     F .text.rtc_resetShutDownTimer	00000028 rtc_resetShutDownTimer
a7f00220 g       .LOADER_CONFIGRAM	00000000 _load_LOADER_CONFIGRAM_FREQ_PARAM_end_base
87f08cfc g     O .data	00000004 RUN_FW_NAME
8ff0415c g     F .LOADER_EXEC	00000104 LZ_Uncompress
87f07abc g     F .text.flash_writeSectors	000007f4 flash_writeSectors
a7f001f0 g     O .LOADER_CONFIGRAM	00000030 ConfigRamFreqParamTab
87f06b08 g     F .text.memcmp	00000044 memcmp
87f08cf4 g     O .data	00000004 UPDATE_FW_NAME
8ff04260 g       .LOADER_EXEC	00000000 _loader_exec_end_base
87f06014 g     F .text.fat_regfilesystem	00000024 fat_regfilesystem
87f071f8 g     F .text.card_close	00000038 card_close
a7f006a8 g     O *ABS*	00000000 _loader_exec_cpu_addr
87f09014 g       .bss	00000000 _image_load_reset_length
a7f00000 g       .BOOT_EXEC	00000000 _load_BOOT_EXEC_start_base
87f06980 g     F .text.memset	000000ac memset
8ff04000 g     F .LOADER_EXEC	000000b4 main
87f05014 g     F .text	0000002c sys_dcache_invalidate_addr
87f06574 g     F .text.fat_initFAT	000003e8 fat_initFAT
87f06038 g     F .text.fat_close_rootfile	00000034 fat_close_rootfile
87f08d48 g     O .data	00000004 g_uiDrvTmpBuffer
87f06c78 g     F .text.CPUflushReadCache	00000074 CPUflushReadCache
a7f00030 g     O .LOADER_CONFIGRAM	000001c0 ConfigRamTab
87f06ec8 g     F .text.gpio_clearPin	0000003c gpio_clearPin
a7f001f0 g       .LOADER_CONFIGRAM	00000000 _load_LOADER_CONFIGRAM_FREQ_PARAM_start_base
87f08f3c g       .bss	00000000 _image_general_zi_zi_base
87f09014 g       *ABS*	00000000 _stack_start
a7f00908 g       *ABS*	00000000 _loader_exec_compress_load_cpu_addr
87f06d28 g     F .text.fLib_PutSerialStr	0000004c fLib_PutSerialStr
87f06bb4 g     F .text.CPUflushWriteCache	00000034 CPUflushWriteCache
00000000       O *UND*	00000000 _load_BOOT_EXEC_start
87f0506c g     F .text	0000002c sys_dcache_clean_addr
87f08d50 g       *ABS*	00000000 _image_general_var_limit
87f09014 g       .bss	00000000 _image_load_reset_base
a7f00224 g     O .internal_stg_version	00000004 nand_tbl_version
00000908 g     O *ABS*	00000000 _loader_exec_compress_load_base
87f050b8 g     F .text	00000044 sys_dcache_index_invalid_tag
87f06208 g     F .text.fat_open_rootfile	0000036c fat_open_rootfile
87f09008 g     O .bss	00000009 gStr
8ff04110 g     F .LOADER_EXEC	0000004c cpu_cleanInvalidateDCacheAll
a7f00224 g       .internal_stg_version	00000000 _load_nand_table_start_base
87f09014 g       .bss	00000000 _load_load_reset_base
a7f0027c g     F .LOADER_REMAP	000003dc start
87f05be0 g     F .text.BL_PostHandle	000000a0 BL_PostHandle
87f06e2c g     F .text.gpio_setDir	00000060 gpio_setDir
00000260 g     O *ABS*	00000000 _loader_exec_size
87f08c80 g     F .text.Dec2HexStr	00000074 Dec2HexStr
87f06ac4 g     F .text.strchr	00000044 strchr
8ff04000 g     O .LOADER_EXEC	00000000 _loader_exec_start_base
87f050ac g     F .text	0000000c sys_icache_invalidate_index
87f09014 g       .bss	00000000 _image_load_reset_zi_limit
87f050fc g       *ABS*	00000000 _image_general_var_base
87f05098 g     F .text	00000014 sys_detect_cache
87f09014 g       .bss	00000000 _image_general_zi_zi_limit
87f08f3c g     O .bss	00000004 BaseOfStack
a7f00684 g       .LOADER_REMAP	00000000 _load_vector_exp_table_start_base
87f07900 g     F .text.flash_getBlockSize	00000020 flash_getBlockSize



Disassembly of section .BOOT_EXEC:

a7f00000 <_load_BOOT_EXEC_start_base>:
a7f00000:	a7f00028 	sh	s0,40(ra)

a7f00004 <LDRAlign>:
a7f00004:	a7f00000 	sh	s0,0(ra)

a7f00008 <CompressBase>:
a7f00008:	00000908 	0x908

a7f0000c <CalibrationDutyReg>:
a7f0000c:	f0800500 	0xf0800500

a7f00010 <DDR_PARAM0>:
a7f00010:	12345678 	beq	s1,s4,a7f159f4 <_loader_exec_compress_load_cpu_addr+0x150ec>

a7f00014 <DDR_PARAM1>:
a7f00014:	00000000 	nop

a7f00018 <DDR_PARAM2>:
a7f00018:	00000000 	nop

a7f0001c <DDR_PARAM3>:
a7f0001c:	00000000 	nop

a7f00020 <DDR_PARAM4>:
a7f00020:	00000000 	nop

a7f00024 <DDR_PARAM5>:
a7f00024:	00000000 	nop

a7f00028 <__start>:
a7f00028:	0dfc009f 	jal	a7f0027c <start>
a7f0002c:	00000000 	nop

Disassembly of section .LOADER_CONFIGRAM:

a7f00030 <ConfigRamTab>:
a7f00030:	0000aa55 	0xaa55
a7f00034:	b0000004 	0xb0000004
a7f00038:	310f0021 	andi	t7,t0,0x21
a7f0003c:	b0001000 	0xb0001000
a7f00040:	e5321024 	swc1	$f18,4132(t1)
a7f00044:	0b0b0b0b 	j	ac2c2c2c <_loader_exec_compress_load_cpu_addr+0x43c2324>
a7f00048:	e5321028 	swc1	$f18,4136(t1)
a7f0004c:	10101818 	beq	zero,s0,a7f060b0 <_loader_exec_compress_load_cpu_addr+0x57a8>
a7f00050:	e532102c 	swc1	$f18,4140(t1)
a7f00054:	1b1b1010 	0x1b1b1010
a7f00058:	b102111c 	0xb102111c
a7f0005c:	000000f7 	0xf7
a7f00060:	b1021108 	0xb1021108
a7f00064:	00000004 	sllv	zero,zero,zero
a7f00068:	66e21082 	0x66e21082
a7f0006c:	00190000 	sll	zero,t9,0x0
a7f00070:	b1020000 	0xb1020000
a7f00074:	00000109 	0x109
a7f00078:	b0020004 	0xb0020004
a7f0007c:	03200103 	0x3200103
a7f00080:	e5876000 	swc1	$f7,24576(t4)
a7f00084:	40402040 	0x40402040
a7f00088:	e5921012 	swc1	$f18,4114(t4)
a7f0008c:	80010802 	lb	at,2050(zero)
a7f00090:	6547501c 	0x6547501c
a7f00094:	0058c502 	0x58c502
a7f00098:	e5321030 	swc1	$f18,4144(t1)
a7f0009c:	18880000 	0x18880000
a7f000a0:	e5321034 	swc1	$f18,4148(t1)
a7f000a4:	fd9c4002 	sdc3	$28,16386(t4)
a7f000a8:	e5321038 	swc1	$f18,4152(t1)
a7f000ac:	4000c04c 	0x4000c04c
a7f000b0:	e532103c 	swc1	$f18,4156(t1)
a7f000b4:	00000000 	nop
a7f000b8:	e5732040 	swc1	$f19,8256(t3)
a7f000bc:	f0700020 	0xf0700020
a7f000c0:	e532104a 	swc1	$f18,4170(t1)
a7f000c4:	4f06ae40 	c3	0x106ae40
a7f000c8:	e587104e 	swc1	$f7,4174(t4)
a7f000cc:	84843368 	lh	a0,13160(a0)
a7f000d0:	25001060 	addiu	zero,t0,4192
a7f000d4:	00000088 	0x88
a7f000d8:	e5321062 	swc1	$f18,4194(t1)
a7f000dc:	070f2644 	0x70f2644
a7f000e0:	e5321066 	swc1	$f18,4198(t1)
a7f000e4:	9c081440 	0x9c081440
a7f000e8:	e532106b 	swc1	$f18,4203(t1)
a7f000ec:	0d004343 	jal	a4010d0c <_loader_exec_end_base+0x1410caac>
a7f000f0:	e542106f 	swc1	$f2,4207(t2)
a7f000f4:	00100717 	0x100717
a7f000f8:	02000000 	0x2000000
a7f000fc:	02000000 	0x2000000
a7f00100:	02000000 	0x2000000
a7f00104:	02000000 	0x2000000
a7f00108:	02000000 	0x2000000
a7f0010c:	02000000 	0x2000000
a7f00110:	02000000 	0x2000000
a7f00114:	02000000 	0x2000000
a7f00118:	02000000 	0x2000000
a7f0011c:	02000000 	0x2000000
a7f00120:	02000000 	0x2000000
a7f00124:	02000000 	0x2000000
a7f00128:	b1001150 	0xb1001150
a7f0012c:	00000000 	nop
a7f00130:	b1001128 	0xb1001128
a7f00134:	000000c0 	ehb
a7f00138:	02000070 	tge	s0,zero,0x1
a7f0013c:	b1001128 	0xb1001128
a7f00140:	00000040 	ssnop
a7f00144:	020000e0 	0x20000e0
a7f00148:	b0001140 	0xb0001140
a7f0014c:	0f439ce7 	jal	ad0e739c <_loader_exec_compress_load_cpu_addr+0x51e6a94>
a7f00150:	66e21062 	0x66e21062
a7f00154:	00480000 	0x480000
a7f00158:	b1020010 	0xb1020010
a7f0015c:	00000203 	sra	zero,zero,0x8
a7f00160:	02000000 	0x2000000
a7f00164:	02000000 	0x2000000
a7f00168:	b1000010 	0xb1000010
a7f0016c:	00000010 	mfhi	zero
a7f00170:	b1000000 	0xb1000000
a7f00174:	00005464 	0x5464
a7f00178:	b0000004 	0xb0000004
a7f0017c:	0110000a 	movz	zero,t0,s0
a7f00180:	b1000008 	0xb1000008
a7f00184:	73424384 	0x73424384
a7f00188:	b100000c 	0xb100000c
a7f0018c:	09230021 	j	a48c0084 <_loader_exec_end_base+0x149bbe24>
a7f00190:	b1000014 	0xb1000014
a7f00194:	0000000f 	sync
a7f00198:	020001b0 	tge	s0,zero,0x6
a7f0019c:	02000000 	0x2000000
a7f001a0:	84800000 	lh	zero,0(a0)
a7f001a4:	24200002 	addiu	zero,at,2
a7f001a8:	24300002 	addiu	s0,at,2
a7f001ac:	24100002 	li	s0,2
a7f001b0:	24015202 	li	at,20994
a7f001b4:	b1000010 	0xb1000010
a7f001b8:	00000013 	mtlo	zero
a7f001bc:	b0000010 	0xb0000010
a7f001c0:	00100000 	sll	zero,s0,0x0
a7f001c4:	b1000004 	0xb1000004
a7f001c8:	00000021 	move	zero,zero
a7f001cc:	b1000050 	0xb1000050
a7f001d0:	000e0007 	srav	zero,t6,zero
a7f001d4:	b1020080 	0xb1020080
a7f001d8:	00000004 	sllv	zero,zero,zero
a7f001dc:	b0020080 	0xb0020080
a7f001e0:	01100003 	0x1100003
a7f001e4:	b1020080 	0xb1020080
a7f001e8:	00000008 	jr	zero
a7f001ec:	00000000 	nop

a7f001f0 <ConfigRamFreqParamTab>:
a7f001f0:	ffffffff 	sdc3	$31,-1(ra)
a7f001f4:	ffffffff 	sdc3	$31,-1(ra)
a7f001f8:	ffffffff 	sdc3	$31,-1(ra)
a7f001fc:	ffffffff 	sdc3	$31,-1(ra)
a7f00200:	ffffffff 	sdc3	$31,-1(ra)
a7f00204:	ffffffff 	sdc3	$31,-1(ra)
a7f00208:	ffffffff 	sdc3	$31,-1(ra)
a7f0020c:	ffffffff 	sdc3	$31,-1(ra)
a7f00210:	ffffffff 	sdc3	$31,-1(ra)
a7f00214:	ffffffff 	sdc3	$31,-1(ra)
a7f00218:	10150000 	beq	zero,s5,a7f0021c <ConfigRamFreqParamTab+0x2c>
a7f0021c:	0000ca99 	0xca99

Disassembly of section .internal_stg_type:

a7f00220 <.internal_stg_type>:
a7f00220:	46495053 	c1	0x495053

Disassembly of section .internal_stg_version:

a7f00224 <_load_nand_table_start_base>:
a7f00224:	0a8d0000 	j	aa340000 <_loader_exec_compress_load_cpu_addr+0x243f6f8>

Disassembly of section .LOADER_REMAP:

a7f00230 <_load_vector_int_table_start_base>:
	...
a7f00270:	0dfc0196 	jal	a7f00658 <INT_Handler>
a7f00274:	00000000 	nop
a7f00278:	00000000 	nop

a7f0027c <start>:
a7f0027c:	3c08b001 	lui	t0,0xb001
a7f00280:	8d0900f0 	lw	t1,240(t0)
a7f00284:	7d291b00 	ext	t1,t1,0xc,0x4
a7f00288:	11200006 	beqz	t1,a7f002a4 <chip_version_ok>
a7f0028c:	00000000 	nop
a7f00290:	3c0ab029 	lui	t2,0xb029
a7f00294:	240b004b 	li	t3,75
a7f00298:	ad4b0000 	sw	t3,0(t2)

a7f0029c <boot_block>:
a7f0029c:	1000ffff 	b	a7f0029c <boot_block>
a7f002a0:	00000000 	nop

a7f002a4 <chip_version_ok>:
a7f002a4:	3c08b002 	lui	t0,0xb002
a7f002a8:	8d090064 	lw	t1,100(t0)
a7f002ac:	3c0a0004 	lui	t2,0x4
a7f002b0:	012a4825 	or	t1,t1,t2
a7f002b4:	ad090064 	sw	t1,100(t0)
a7f002b8:	3c11b004 	lui	s1,0xb004
a7f002bc:	8e290008 	lw	t1,8(s1)
a7f002c0:	3c0a0001 	lui	t2,0x1
a7f002c4:	012a4825 	or	t1,t1,t2
a7f002c8:	ae290008 	sw	t1,8(s1)
a7f002cc:	240a0001 	li	t2,1
a7f002d0:	ae2a0100 	sw	t2,256(s1)
a7f002d4:	3c10b065 	lui	s0,0xb065
a7f002d8:	8e090004 	lw	t1,4(s0)
a7f002dc:	7c090004 	ins	t1,zero,0x0,0x1
a7f002e0:	ae090004 	sw	t1,4(s0)
a7f002e4:	240f0002 	li	t7,2
a7f002e8:	8e2d0108 	lw	t5,264(s1)

a7f002ec <start_wait1us_1>:
a7f002ec:	8e2e0108 	lw	t6,264(s1)
a7f002f0:	01cd7022 	sub	t6,t6,t5
a7f002f4:	15cffffd 	bne	t6,t7,a7f002ec <start_wait1us_1>
a7f002f8:	00000000 	nop
a7f002fc:	8d090070 	lw	t1,112(t0)
a7f00300:	3c0a0040 	lui	t2,0x40
a7f00304:	012a4825 	or	t1,t1,t2
a7f00308:	ad090070 	sw	t1,112(t0)
a7f0030c:	8e2d0108 	lw	t5,264(s1)

a7f00310 <start_wait1us_2>:
a7f00310:	8e2e0108 	lw	t6,264(s1)
a7f00314:	01cd7022 	sub	t6,t6,t5
a7f00318:	15cffffd 	bne	t6,t7,a7f00310 <start_wait1us_2>
a7f0031c:	00000000 	nop
a7f00320:	24090001 	li	t1,1
a7f00324:	ae090000 	sw	t1,0(s0)
a7f00328:	8e2d0108 	lw	t5,264(s1)

a7f0032c <start_wait1us_3>:
a7f0032c:	8e2e0108 	lw	t6,264(s1)
a7f00330:	01cd7022 	sub	t6,t6,t5
a7f00334:	15cffffd 	bne	t6,t7,a7f0032c <start_wait1us_3>
a7f00338:	00000000 	nop
a7f0033c:	8d090060 	lw	t1,96(t0)
a7f00340:	012a4825 	or	t1,t1,t2
a7f00344:	ad090060 	sw	t1,96(t0)
a7f00348:	3c12b082 	lui	s2,0xb082
a7f0034c:	3c090001 	lui	t1,0x1
a7f00350:	ae49008c 	sw	t1,140(s2)
a7f00354:	8e2e0108 	lw	t6,264(s1)
a7f00358:	3c11b080 	lui	s1,0xb080
a7f0035c:	ae2e0200 	sw	t6,512(s1)
a7f00360:	3c08b000 	lui	t0,0xb000
a7f00364:	35081000 	ori	t0,t0,0x1000
a7f00368:	8d090000 	lw	t1,0(t0)
a7f0036c:	7c093184 	ins	t1,zero,0x6,0x1
a7f00370:	ad090000 	sw	t1,0(t0)
a7f00374:	0000000f 	sync
a7f00378:	3c08b001 	lui	t0,0xb001
a7f0037c:	8d090000 	lw	t1,0(t0)
a7f00380:	3c0a0002 	lui	t2,0x2
a7f00384:	012a4825 	or	t1,t1,t2
a7f00388:	ad090000 	sw	t1,0(t0)
a7f0038c:	0000000f 	sync
a7f00390:	3c08b000 	lui	t0,0xb000
a7f00394:	35088000 	ori	t0,t0,0x8000
a7f00398:	8d090000 	lw	t1,0(t0)
a7f0039c:	240a0000 	li	t2,0
a7f003a0:	012a4825 	or	t1,t1,t2
a7f003a4:	ad090000 	sw	t1,0(t0)
a7f003a8:	400a6000 	mfc0	t2,c0_status
a7f003ac:	340bff02 	li	t3,0xff02
a7f003b0:	408b6000 	mtc0	t3,c0_status
a7f003b4:	400a6000 	mfc0	t2,c0_status
a7f003b8:	3c0b0140 	lui	t3,0x140
a7f003bc:	3c0d0100 	lui	t5,0x100
a7f003c0:	01605827 	nor	t3,t3,zero
a7f003c4:	014b5024 	and	t2,t2,t3
a7f003c8:	014d5025 	or	t2,t2,t5
a7f003cc:	408a6000 	mtc0	t2,c0_status
a7f003d0:	40809000 	mtc0	zero,c0_watchlo
a7f003d4:	3c0b0007 	lui	t3,0x7
a7f003d8:	408b9800 	mtc0	t3,c0_watchhi
a7f003dc:	400a6001 	mfc0	t2,c0_intctl
a7f003e0:	240b0020 	li	t3,32
a7f003e4:	408b6001 	mtc0	t3,c0_intctl
a7f003e8:	400a6003 	mfc0	t2,c0_srsmap
a7f003ec:	240b0100 	li	t3,256
a7f003f0:	408b6003 	mtc0	t3,c0_srsmap
a7f003f4:	3c0b0880 	lui	t3,0x880
a7f003f8:	408b6800 	mtc0	t3,c0_cause
a7f003fc:	400a8000 	mfc0	t2,c0_config
a7f00400:	7c0a1084 	ins	t2,zero,0x2,0x1
a7f00404:	354a0003 	ori	t2,t2,0x3
a7f00408:	408a8000 	mtc0	t2,c0_config
a7f0040c:	400c8007 	mfc0	t4,$16,7
a7f00410:	358c0100 	ori	t4,t4,0x100
a7f00414:	408c8007 	mtc0	t4,$16,7
a7f00418:	40804800 	mtc0	zero,c0_count
a7f0041c:	240affff 	li	t2,-1
a7f00420:	408a5800 	mtc0	t2,c0_compare
a7f00424:	240b0020 	li	t3,32
a7f00428:	240c0200 	li	t4,512
a7f0042c:	3c0e8000 	lui	t6,0x8000
a7f00430:	4080e000 	mtc0	zero,c0_taglo
a7f00434:	01807821 	move	t7,t4
a7f00438:	bdc80000 	cache	0x8,0(t6)
a7f0043c:	21efffff 	addi	t7,t7,-1
a7f00440:	15e0fffd 	bnez	t7,a7f00438 <start_wait1us_3+0x10c>
a7f00444:	01cb7020 	add	t6,t6,t3
a7f00448:	240b0020 	li	t3,32
a7f0044c:	240c0200 	li	t4,512
a7f00450:	3c0e8000 	lui	t6,0x8000
a7f00454:	4080e002 	mtc0	zero,c0_taglo1
a7f00458:	01807821 	move	t7,t4
a7f0045c:	bdc90000 	cache	0x9,0(t6)
a7f00460:	21efffff 	addi	t7,t7,-1
a7f00464:	15e0fffd 	bnez	t7,a7f0045c <start_wait1us_3+0x130>
a7f00468:	01cb7020 	add	t6,t6,t3

a7f0046c <wait_hdmi_pd_time>:
a7f0046c:	3c08b080 	lui	t0,0xb080
a7f00470:	8d090200 	lw	t1,512(t0)
a7f00474:	3c11b004 	lui	s1,0xb004
a7f00478:	8e2a0108 	lw	t2,264(s1)
a7f0047c:	240b00a0 	li	t3,160
a7f00480:	01495022 	sub	t2,t2,t1
a7f00484:	014b5022 	sub	t2,t2,t3
a7f00488:	1940fff8 	blez	t2,a7f0046c <wait_hdmi_pd_time>
a7f0048c:	00000000 	nop
a7f00490:	3c08b082 	lui	t0,0xb082
a7f00494:	ad00008c 	sw	zero,140(t0)
a7f00498:	3c08a7f0 	lui	t0,0xa7f0
a7f0049c:	25080684 	addiu	t0,t0,1668
a7f004a0:	3c098000 	lui	t1,0x8000
a7f004a4:	35290180 	ori	t1,t1,0x180
a7f004a8:	3c0aa7f0 	lui	t2,0xa7f0
a7f004ac:	254a06a8 	addiu	t2,t2,1704

a7f004b0 <exp_table>:
a7f004b0:	8d0b0000 	lw	t3,0(t0)
a7f004b4:	ad2b0000 	sw	t3,0(t1)
a7f004b8:	25080004 	addiu	t0,t0,4
a7f004bc:	150afffc 	bne	t0,t2,a7f004b0 <exp_table>
a7f004c0:	25290004 	addiu	t1,t1,4
a7f004c4:	3c08a7f0 	lui	t0,0xa7f0
a7f004c8:	25080230 	addiu	t0,t0,560
a7f004cc:	3c098000 	lui	t1,0x8000
a7f004d0:	35290200 	ori	t1,t1,0x200
a7f004d4:	3c0aa7f0 	lui	t2,0xa7f0
a7f004d8:	254a027c 	addiu	t2,t2,636

a7f004dc <isr_table>:
a7f004dc:	8d0b0000 	lw	t3,0(t0)
a7f004e0:	ad2b0000 	sw	t3,0(t1)
a7f004e4:	25080004 	addiu	t0,t0,4
a7f004e8:	150afffc 	bne	t0,t2,a7f004dc <isr_table>
a7f004ec:	25290004 	addiu	t1,t1,4
a7f004f0:	3c0887f1 	lui	t0,0x87f1
a7f004f4:	25088f3c 	addiu	t0,t0,-28868
a7f004f8:	3c0987f1 	lui	t1,0x87f1
a7f004fc:	25299014 	addiu	t1,t1,-28652

a7f00500 <clearbss>:
a7f00500:	ad000000 	sw	zero,0(t0)
a7f00504:	25080004 	addiu	t0,t0,4
a7f00508:	1509fffd 	bne	t0,t1,a7f00500 <clearbss>
a7f0050c:	00000000 	nop
a7f00510:	3c10b002 	lui	s0,0xb002
a7f00514:	3c11b004 	lui	s1,0xb004
a7f00518:	3c12b065 	lui	s2,0xb065
a7f0051c:	8e0b0060 	lw	t3,96(s0)
a7f00520:	7c0bb584 	ins	t3,zero,0x16,0x1
a7f00524:	ae0b0060 	sw	t3,96(s0)
a7f00528:	ae400000 	sw	zero,0(s2)
a7f0052c:	240f0002 	li	t7,2
a7f00530:	8e2d0108 	lw	t5,264(s1)

a7f00534 <start_wait1us_10>:
a7f00534:	8e2e0108 	lw	t6,264(s1)
a7f00538:	01cd7022 	sub	t6,t6,t5
a7f0053c:	15cffffd 	bne	t6,t7,a7f00534 <start_wait1us_10>
a7f00540:	00000000 	nop
a7f00544:	8e0b0070 	lw	t3,112(s0)
a7f00548:	7c0bb584 	ins	t3,zero,0x16,0x1
a7f0054c:	ae0b0070 	sw	t3,112(s0)
a7f00550:	240f0002 	li	t7,2
a7f00554:	8e2d0108 	lw	t5,264(s1)

a7f00558 <start_wait1us_11>:
a7f00558:	8e2e0108 	lw	t6,264(s1)
a7f0055c:	01cd7022 	sub	t6,t6,t5
a7f00560:	15cffffd 	bne	t6,t7,a7f00558 <start_wait1us_11>
a7f00564:	00000000 	nop
a7f00568:	8e4b0004 	lw	t3,4(s2)
a7f0056c:	356b0001 	ori	t3,t3,0x1
a7f00570:	ae4b0004 	sw	t3,4(s2)

a7f00574 <init_stack>:
a7f00574:	3c0aa7f0 	lui	t2,0xa7f0
a7f00578:	8d4a067c 	lw	t2,1660(t2)
a7f0057c:	3c0ba7f0 	lui	t3,0xa7f0
a7f00580:	8d6b0680 	lw	t3,1664(t3)
a7f00584:	ad490000 	sw	t1,0(t2)
a7f00588:	25291000 	addiu	t1,t1,4096
a7f0058c:	0120e821 	move	sp,t1
a7f00590:	25290400 	addiu	t1,t1,1024
a7f00594:	ad690000 	sw	t1,0(t3)
a7f00598:	400c6002 	mfc0	t4,c0_srsctl
a7f0059c:	7c0c4984 	ins	t4,zero,0x6,0x4
a7f005a0:	358c0040 	ori	t4,t4,0x40
a7f005a4:	408c6002 	mtc0	t4,c0_srsctl
a7f005a8:	3c0da7f0 	lui	t5,0xa7f0
a7f005ac:	25ad05c0 	addiu	t5,t5,1472
a7f005b0:	408d7000 	mtc0	t5,c0_epc
a7f005b4:	00000040 	ssnop
a7f005b8:	00000040 	ssnop
a7f005bc:	42000018 	eret

a7f005c0 <_init_shadow_reg1_start>:
a7f005c0:	3c0ba7f0 	lui	t3,0xa7f0
a7f005c4:	8d6b0680 	lw	t3,1664(t3)
a7f005c8:	8d690000 	lw	t1,0(t3)
a7f005cc:	0120e821 	move	sp,t1
a7f005d0:	400c6002 	mfc0	t4,c0_srsctl
a7f005d4:	7c0c4984 	ins	t4,zero,0x6,0x4
a7f005d8:	408c6002 	mtc0	t4,c0_srsctl
a7f005dc:	3c0da7f0 	lui	t5,0xa7f0
a7f005e0:	25ad05f4 	addiu	t5,t5,1524
a7f005e4:	408d7000 	mtc0	t5,c0_epc
a7f005e8:	00000040 	ssnop
a7f005ec:	00000040 	ssnop
a7f005f0:	42000018 	eret

a7f005f4 <_init_shadow_reg1_done>:
	...
a7f005fc:	3c088ff0 	lui	t0,0x8ff0
a7f00600:	25084000 	addiu	t0,t0,16384
a7f00604:	3c09a000 	lui	t1,0xa000
a7f00608:	01094025 	or	t0,t0,t1
a7f0060c:	3c09a7f0 	lui	t1,0xa7f0
a7f00610:	252906a8 	addiu	t1,t1,1704
a7f00614:	3c180000 	lui	t8,0x0
a7f00618:	27180260 	addiu	t8,t8,608

a7f0061c <__init_copy_main_code>:
a7f0061c:	8d2a0000 	lw	t2,0(t1)
a7f00620:	21290004 	addi	t1,t1,4
a7f00624:	ad0a0000 	sw	t2,0(t0)
a7f00628:	21080004 	addi	t0,t0,4
a7f0062c:	2318fffc 	addi	t8,t8,-4
a7f00630:	1700fffa 	bnez	t8,a7f0061c <__init_copy_main_code>
a7f00634:	00000000 	nop
a7f00638:	3c028ff0 	lui	v0,0x8ff0
a7f0063c:	24424000 	addiu	v0,v0,16384
a7f00640:	0040fc09 	jalr.hb	v0
a7f00644:	00000000 	nop
a7f00648:	3c0a8000 	lui	t2,0x8000
a7f0064c:	8d4a0000 	lw	t2,0(t2)
a7f00650:	0140f809 	jalr	t2
a7f00654:	00000000 	nop

a7f00658 <INT_Handler>:
a7f00658:	3c0ab029 	lui	t2,0xb029
a7f0065c:	240c0049 	li	t4,73
a7f00660:	ad4c0000 	sw	t4,0(t2)
a7f00664:	240c004e 	li	t4,78
a7f00668:	ad4c0000 	sw	t4,0(t2)
a7f0066c:	240c0054 	li	t4,84
a7f00670:	ad4c0000 	sw	t4,0(t2)

a7f00674 <INT_LOOP>:
a7f00674:	09fc019d 	j	a7f00674 <INT_LOOP>
a7f00678:	00000000 	nop

a7f0067c <pTopOfStack>:
a7f0067c:	87f08f40 	lh	s0,-28864(ra)

a7f00680 <pBaseOfStack>:
a7f00680:	87f08f3c 	lh	s0,-28868(ra)

a7f00684 <EXP_Handler>:
a7f00684:	3c0ab029 	lui	t2,0xb029
a7f00688:	240c0045 	li	t4,69
a7f0068c:	ad4c0000 	sw	t4,0(t2)
a7f00690:	240c0058 	li	t4,88
a7f00694:	ad4c0000 	sw	t4,0(t2)
a7f00698:	240c0050 	li	t4,80
a7f0069c:	ad4c0000 	sw	t4,0(t2)

a7f006a0 <EXP_LOOP>:
a7f006a0:	09fc01a8 	j	a7f006a0 <EXP_LOOP>
a7f006a4:	00000000 	nop

Disassembly of section .LOADER_EXEC:

8ff04000 <main>:
8ff04000:	27bdffe0 	addiu	sp,sp,-32
8ff04004:	3c02a7f0 	lui	v0,0xa7f0
8ff04008:	24420908 	addiu	v0,v0,2312
8ff0400c:	afbf001c 	sw	ra,28(sp)
8ff04010:	afbe0018 	sw	s8,24(sp)
8ff04014:	9046000c 	lbu	a2,12(v0)
8ff04018:	9043000d 	lbu	v1,13(v0)
8ff0401c:	00063600 	sll	a2,a2,0x18
8ff04020:	00031c00 	sll	v1,v1,0x10
8ff04024:	00c33021 	addu	a2,a2,v1
8ff04028:	9043000f 	lbu	v1,15(v0)
8ff0402c:	9042000e 	lbu	v0,14(v0)
8ff04030:	00c33021 	addu	a2,a2,v1
8ff04034:	00021200 	sll	v0,v0,0x8
8ff04038:	00c23021 	addu	a2,a2,v0
8ff0403c:	3c04a7f0 	lui	a0,0xa7f0
8ff04040:	3c0587f0 	lui	a1,0x87f0
8ff04044:	3c028ff0 	lui	v0,0x8ff0
8ff04048:	03a0f021 	move	s8,sp
8ff0404c:	24840918 	addiu	a0,a0,2328
8ff04050:	2442415c 	addiu	v0,v0,16732
8ff04054:	0040f809 	jalr	v0
8ff04058:	24a55000 	addiu	a1,a1,20480
8ff0405c:	3c028ff0 	lui	v0,0x8ff0
8ff04060:	244240b4 	addiu	v0,v0,16564
8ff04064:	0040f809 	jalr	v0
8ff04068:	00000000 	nop
8ff0406c:	3c028ff0 	lui	v0,0x8ff0
8ff04070:	24424110 	addiu	v0,v0,16656
8ff04074:	0040f809 	jalr	v0
8ff04078:	00000000 	nop
8ff0407c:	3c0287f0 	lui	v0,0x87f0
8ff04080:	2442529c 	addiu	v0,v0,21148
8ff04084:	0040f809 	jalr	v0
8ff04088:	00000000 	nop
8ff0408c:	3c0387f0 	lui	v1,0x87f0
8ff04090:	24635be0 	addiu	v1,v1,23520
8ff04094:	0060f809 	jalr	v1
8ff04098:	afc20010 	sw	v0,16(s8)
8ff0409c:	03c0e821 	move	sp,s8
8ff040a0:	8fc20010 	lw	v0,16(s8)
8ff040a4:	8fbf001c 	lw	ra,28(sp)
8ff040a8:	8fbe0018 	lw	s8,24(sp)
8ff040ac:	03e00008 	jr	ra
8ff040b0:	27bd0020 	addiu	sp,sp,32

8ff040b4 <CPUInvalidateICacheAll>:
8ff040b4:	27bdfff8 	addiu	sp,sp,-8
8ff040b8:	24030003 	li	v1,3
8ff040bc:	afbe0004 	sw	s8,4(sp)
8ff040c0:	40028000 	mfc0	v0,c0_config
8ff040c4:	24080007 	li	t0,7
8ff040c8:	00481024 	and	v0,v0,t0
8ff040cc:	1443000c 	bne	v0,v1,8ff04100 <CPUInvalidateICacheAll+0x4c>
8ff040d0:	03a0f021 	move	s8,sp
8ff040d4:	3c028000 	lui	v0,0x8000
8ff040d8:	34434000 	ori	v1,v0,0x4000
8ff040dc:	bc400000 	cache	0x0,0(v0)
8ff040e0:	24420020 	addiu	v0,v0,32
8ff040e4:	1443fffd 	bne	v0,v1,8ff040dc <CPUInvalidateICacheAll+0x28>
8ff040e8:	00000000 	nop
8ff040ec:	0000000f 	sync
8ff040f0:	3c0e8ff0 	lui	t6,0x8ff0
8ff040f4:	25ce4100 	addiu	t6,t6,16640
8ff040f8:	01c00408 	jr.hb	t6
8ff040fc:	00000000 	nop
8ff04100:	03c0e821 	move	sp,s8
8ff04104:	8fbe0004 	lw	s8,4(sp)
8ff04108:	03e00008 	jr	ra
8ff0410c:	27bd0008 	addiu	sp,sp,8

8ff04110 <cpu_cleanInvalidateDCacheAll>:
8ff04110:	27bdfff8 	addiu	sp,sp,-8
8ff04114:	24030003 	li	v1,3
8ff04118:	afbe0004 	sw	s8,4(sp)
8ff0411c:	40028000 	mfc0	v0,c0_config
8ff04120:	24080007 	li	t0,7
8ff04124:	00481024 	and	v0,v0,t0
8ff04128:	14430008 	bne	v0,v1,8ff0414c <cpu_cleanInvalidateDCacheAll+0x3c>
8ff0412c:	03a0f021 	move	s8,sp
8ff04130:	3c028000 	lui	v0,0x8000
8ff04134:	34434000 	ori	v1,v0,0x4000
8ff04138:	bc410000 	cache	0x1,0(v0)
8ff0413c:	0000000f 	sync
8ff04140:	24420020 	addiu	v0,v0,32
8ff04144:	1443fffc 	bne	v0,v1,8ff04138 <cpu_cleanInvalidateDCacheAll+0x28>
8ff04148:	00000000 	nop
8ff0414c:	03c0e821 	move	sp,s8
8ff04150:	8fbe0004 	lw	s8,4(sp)
8ff04154:	03e00008 	jr	ra
8ff04158:	27bd0008 	addiu	sp,sp,8

8ff0415c <LZ_Uncompress>:
8ff0415c:	27bdfff8 	addiu	sp,sp,-8
8ff04160:	afbe0004 	sw	s8,4(sp)
8ff04164:	10c0003a 	beqz	a2,8ff04250 <LZ_Uncompress+0xf4>
8ff04168:	03a0f021 	move	s8,sp
8ff0416c:	908c0000 	lbu	t4,0(a0)
8ff04170:	00001021 	move	v0,zero
8ff04174:	24030001 	li	v1,1
8ff04178:	7c83398a 	lbux	a3,v1(a0)
8ff0417c:	14ec002e 	bne	a3,t4,8ff04238 <LZ_Uncompress+0xdc>
8ff04180:	24630001 	addiu	v1,v1,1
8ff04184:	00834021 	addu	t0,a0,v1
8ff04188:	91070000 	lbu	a3,0(t0)
8ff0418c:	14e00006 	bnez	a3,8ff041a8 <LZ_Uncompress+0x4c>
8ff04190:	00004821 	move	t1,zero
8ff04194:	00a23821 	addu	a3,a1,v0
8ff04198:	24630001 	addiu	v1,v1,1
8ff0419c:	a0ec0000 	sb	t4,0(a3)
8ff041a0:	0bfc1091 	j	8ff04244 <LZ_Uncompress+0xe8>
8ff041a4:	24420001 	addiu	v0,v0,1
8ff041a8:	00003821 	move	a3,zero
8ff041ac:	910a0000 	lbu	t2,0(t0)
8ff041b0:	000739c0 	sll	a3,a3,0x7
8ff041b4:	314b007f 	andi	t3,t2,0x7f
8ff041b8:	314a0080 	andi	t2,t2,0x80
8ff041bc:	25080001 	addiu	t0,t0,1
8ff041c0:	00eb3825 	or	a3,a3,t3
8ff041c4:	1540fff9 	bnez	t2,8ff041ac <LZ_Uncompress+0x50>
8ff041c8:	25290001 	addiu	t1,t1,1
8ff041cc:	01231821 	addu	v1,t1,v1
8ff041d0:	00834821 	addu	t1,a0,v1
8ff041d4:	00004021 	move	t0,zero
8ff041d8:	00005821 	move	t3,zero
8ff041dc:	912a0000 	lbu	t2,0(t1)
8ff041e0:	000b59c0 	sll	t3,t3,0x7
8ff041e4:	314d007f 	andi	t5,t2,0x7f
8ff041e8:	314a0080 	andi	t2,t2,0x80
8ff041ec:	25290001 	addiu	t1,t1,1
8ff041f0:	016d5825 	or	t3,t3,t5
8ff041f4:	1540fff9 	bnez	t2,8ff041dc <LZ_Uncompress+0x80>
8ff041f8:	25080001 	addiu	t0,t0,1
8ff041fc:	004b5823 	subu	t3,v0,t3
8ff04200:	00ab5821 	addu	t3,a1,t3
8ff04204:	00a25021 	addu	t2,a1,v0
8ff04208:	0bfc1088 	j	8ff04220 <LZ_Uncompress+0xc4>
8ff0420c:	00004821 	move	t1,zero
8ff04210:	25290001 	addiu	t1,t1,1
8ff04214:	a14d0000 	sb	t5,0(t2)
8ff04218:	256b0001 	addiu	t3,t3,1
8ff0421c:	254a0001 	addiu	t2,t2,1
8ff04220:	0127682b 	sltu	t5,t1,a3
8ff04224:	55a0fffa 	bnezl	t5,8ff04210 <LZ_Uncompress+0xb4>
8ff04228:	916d0000 	lbu	t5,0(t3)
8ff0422c:	00471021 	addu	v0,v0,a3
8ff04230:	0bfc1091 	j	8ff04244 <LZ_Uncompress+0xe8>
8ff04234:	01031821 	addu	v1,t0,v1
8ff04238:	00a24021 	addu	t0,a1,v0
8ff0423c:	24420001 	addiu	v0,v0,1
8ff04240:	a1070000 	sb	a3,0(t0)
8ff04244:	0066382b 	sltu	a3,v1,a2
8ff04248:	54e0ffcc 	bnezl	a3,8ff0417c <LZ_Uncompress+0x20>
8ff0424c:	7c83398a 	lbux	a3,v1(a0)
8ff04250:	03c0e821 	move	sp,s8
8ff04254:	8fbe0004 	lw	s8,4(sp)
8ff04258:	03e00008 	jr	ra
8ff0425c:	27bd0008 	addiu	sp,sp,8

Disassembly of section .text:

87f05000 <sys_dcache_flush_index>:
87f05000:	bc810000 	cache	0x1,0(a0)
87f05004:	0000000f 	sync
87f05008:	03e00008 	jr	ra
87f0500c:	00000000 	nop
87f05010:	00000000 	nop

87f05014 <sys_dcache_invalidate_addr>:
87f05014:	40098000 	mfc0	t1,c0_config
87f05018:	31290007 	andi	t1,t1,0x7
87f0501c:	39290002 	xori	t1,t1,0x2
87f05020:	11200003 	beqz	t1,87f05030 <sys_dcache_invalidate_addr+0x1c>
87f05024:	00000000 	nop
87f05028:	00000000 	nop
87f0502c:	bc910000 	cache	0x11,0(a0)
87f05030:	0000000f 	sync
87f05034:	03e00008 	jr	ra
87f05038:	00000000 	nop
87f0503c:	80800000 	lb	zero,0(a0)

87f05040 <sys_dcache_flush_addr>:
87f05040:	40098000 	mfc0	t1,c0_config
87f05044:	31290007 	andi	t1,t1,0x7
87f05048:	39290002 	xori	t1,t1,0x2
87f0504c:	11200003 	beqz	t1,87f0505c <sys_dcache_flush_addr+0x1c>
87f05050:	00000000 	nop
87f05054:	00000000 	nop
87f05058:	bc950000 	cache	0x15,0(a0)
87f0505c:	0000000f 	sync
87f05060:	03e00008 	jr	ra
87f05064:	00000000 	nop
87f05068:	80800000 	lb	zero,0(a0)

87f0506c <sys_dcache_clean_addr>:
87f0506c:	40098000 	mfc0	t1,c0_config
87f05070:	31290007 	andi	t1,t1,0x7
87f05074:	39290002 	xori	t1,t1,0x2
87f05078:	11200003 	beqz	t1,87f05088 <sys_dcache_clean_addr+0x1c>
87f0507c:	00000000 	nop
87f05080:	00000000 	nop
87f05084:	bc990000 	cache	0x19,0(a0)
87f05088:	0000000f 	sync
87f0508c:	03e00008 	jr	ra
87f05090:	00000000 	nop
87f05094:	80800000 	lb	zero,0(a0)

87f05098 <sys_detect_cache>:
87f05098:	400a8000 	mfc0	t2,c0_config
87f0509c:	240b0007 	li	t3,7
87f050a0:	014b5024 	and	t2,t2,t3
87f050a4:	03e00008 	jr	ra
87f050a8:	01401021 	move	v0,t2

87f050ac <sys_icache_invalidate_index>:
87f050ac:	03e00008 	jr	ra
87f050b0:	bc800000 	cache	0x0,0(a0)
87f050b4:	00000000 	nop

87f050b8 <sys_dcache_index_invalid_tag>:
87f050b8:	40098000 	mfc0	t1,c0_config
87f050bc:	31290007 	andi	t1,t1,0x7
87f050c0:	39290002 	xori	t1,t1,0x2
87f050c4:	11200009 	beqz	t1,87f050ec <sys_dcache_index_invalid_tag+0x34>
87f050c8:	00000000 	nop
87f050cc:	00000000 	nop
87f050d0:	bc850000 	cache	0x5,0(a0)
87f050d4:	400ae002 	mfc0	t2,c0_taglo1
87f050d8:	240b0080 	li	t3,128
87f050dc:	01605827 	nor	t3,t3,zero
87f050e0:	014b5024 	and	t2,t2,t3
87f050e4:	408ae002 	mtc0	t2,c0_taglo1
87f050e8:	bc890000 	cache	0x9,0(a0)
87f050ec:	0000000f 	sync
87f050f0:	03e00008 	jr	ra
87f050f4:	00000000 	nop
87f050f8:	80800000 	lb	zero,0(a0)

Disassembly of section .text.bl_spiIdentify:

87f050fc <bl_spiIdentify>:
87f050fc:	27bdfff8 	addiu	sp,sp,-8
87f05100:	240200bf 	li	v0,191
87f05104:	afbe0004 	sw	s8,4(sp)
87f05108:	1482000a 	bne	a0,v0,87f05134 <bl_spiIdentify+0x38>
87f0510c:	03a0f021 	move	s8,sp
87f05110:	2402004a 	li	v0,74
87f05114:	54c20018 	bnel	a2,v0,87f05178 <bl_spiIdentify+0x7c>
87f05118:	00001021 	move	v0,zero
87f0511c:	24020001 	li	v0,1
87f05120:	ace20004 	sw	v0,4(a3)
87f05124:	ace20000 	sw	v0,0(a3)
87f05128:	ace00008 	sw	zero,8(a3)
87f0512c:	09fc145c 	j	87f05170 <bl_spiIdentify+0x74>
87f05130:	3c020040 	lui	v0,0x40
87f05134:	2402008c 	li	v0,140
87f05138:	1482000f 	bne	a0,v0,87f05178 <bl_spiIdentify+0x7c>
87f0513c:	00001021 	move	v0,zero
87f05140:	24020041 	li	v0,65
87f05144:	14a2000c 	bne	a1,v0,87f05178 <bl_spiIdentify+0x7c>
87f05148:	00001021 	move	v0,zero
87f0514c:	24020017 	li	v0,23
87f05150:	54c20009 	bnel	a2,v0,87f05178 <bl_spiIdentify+0x7c>
87f05154:	00001021 	move	v0,zero
87f05158:	24020001 	li	v0,1
87f0515c:	ace2000c 	sw	v0,12(a3)
87f05160:	ace00008 	sw	zero,8(a3)
87f05164:	ace00004 	sw	zero,4(a3)
87f05168:	ace00000 	sw	zero,0(a3)
87f0516c:	3c020080 	lui	v0,0x80
87f05170:	ace20010 	sw	v0,16(a3)
87f05174:	24020001 	li	v0,1
87f05178:	03c0e821 	move	sp,s8
87f0517c:	8fbe0004 	lw	s8,4(sp)
87f05180:	03e00008 	jr	ra
87f05184:	27bd0008 	addiu	sp,sp,8

Disassembly of section .text.bl_displayErrMsg:

87f05188 <bl_displayErrMsg>:
87f05188:	27bdffe8 	addiu	sp,sp,-24
87f0518c:	afbe0010 	sw	s8,16(sp)
87f05190:	afbf0014 	sw	ra,20(sp)
87f05194:	0dfc1b4a 	jal	87f06d28 <fLib_PutSerialStr>
87f05198:	03a0f021 	move	s8,sp
87f0519c:	09fc1467 	j	87f0519c <bl_displayErrMsg+0x14>
87f051a0:	00000000 	nop

Disassembly of section .text.bl_checkFW:

87f051a4 <bl_checkFW>:
87f051a4:	27bdffe0 	addiu	sp,sp,-32
87f051a8:	3c02314c 	lui	v0,0x314c
87f051ac:	afbe0018 	sw	s8,24(sp)
87f051b0:	afb10014 	sw	s1,20(sp)
87f051b4:	afb00010 	sw	s0,16(sp)
87f051b8:	afbf001c 	sw	ra,28(sp)
87f051bc:	8c830000 	lw	v1,0(a0)
87f051c0:	34424342 	ori	v0,v0,0x4342
87f051c4:	03a0f021 	move	s8,sp
87f051c8:	00808821 	move	s1,a0
87f051cc:	14620010 	bne	v1,v0,87f05210 <bl_checkFW+0x6c>
87f051d0:	00a08021 	move	s0,a1
87f051d4:	3c0487f1 	lui	a0,0x87f1
87f051d8:	0dfc1b4a 	jal	87f06d28 <fLib_PutSerialStr>
87f051dc:	24848d50 	addiu	a0,a0,-29360
87f051e0:	8e22000c 	lw	v0,12(s1)
87f051e4:	00022602 	srl	a0,v0,0x18
87f051e8:	00021e00 	sll	v1,v0,0x18
87f051ec:	00831825 	or	v1,a0,v1
87f051f0:	3044ff00 	andi	a0,v0,0xff00
87f051f4:	00042200 	sll	a0,a0,0x8
87f051f8:	00021202 	srl	v0,v0,0x8
87f051fc:	00641825 	or	v1,v1,a0
87f05200:	3042ff00 	andi	v0,v0,0xff00
87f05204:	00621025 	or	v0,v1,v0
87f05208:	09fc1488 	j	87f05220 <bl_checkFW+0x7c>
87f0520c:	24420010 	addiu	v0,v0,16
87f05210:	3c0487f1 	lui	a0,0x87f1
87f05214:	0dfc1b4a 	jal	87f06d28 <fLib_PutSerialStr>
87f05218:	24848d5c 	addiu	a0,a0,-29348
87f0521c:	8e220068 	lw	v0,104(s1)
87f05220:	00102042 	srl	a0,s0,0x1
87f05224:	00001821 	move	v1,zero
87f05228:	09fc148f 	j	87f0523c <bl_checkFW+0x98>
87f0522c:	00002821 	move	a1,zero
87f05230:	24a50001 	addiu	a1,a1,1
87f05234:	00661821 	addu	v1,v1,a2
87f05238:	26310002 	addiu	s1,s1,2
87f0523c:	00a4302b 	sltu	a2,a1,a0
87f05240:	54c0fffb 	bnezl	a2,87f05230 <bl_checkFW+0x8c>
87f05244:	96260000 	lhu	a2,0(s1)
87f05248:	2485ffff 	addiu	a1,a0,-1
87f0524c:	70a42002 	mul	a0,a1,a0
87f05250:	00042042 	srl	a0,a0,0x1
87f05254:	00641821 	addu	v1,v1,a0
87f05258:	3063ffff 	andi	v1,v1,0xffff
87f0525c:	54600006 	bnezl	v1,87f05278 <bl_checkFW+0xd4>
87f05260:	3c0487f1 	lui	a0,0x87f1
87f05264:	50400007 	beqzl	v0,87f05284 <bl_checkFW+0xe0>
87f05268:	03c0e821 	move	sp,s8
87f0526c:	50500005 	beql	v0,s0,87f05284 <bl_checkFW+0xe0>
87f05270:	03c0e821 	move	sp,s8
87f05274:	3c0487f1 	lui	a0,0x87f1
87f05278:	0dfc1462 	jal	87f05188 <bl_displayErrMsg>
87f0527c:	24848d30 	addiu	a0,a0,-29392
87f05280:	03c0e821 	move	sp,s8
87f05284:	8fbf001c 	lw	ra,28(sp)
87f05288:	8fbe0018 	lw	s8,24(sp)
87f0528c:	8fb10014 	lw	s1,20(sp)
87f05290:	8fb00010 	lw	s0,16(sp)
87f05294:	03e00008 	jr	ra
87f05298:	27bd0020 	addiu	sp,sp,32

Disassembly of section .text.bl_mainFlow:

87f0529c <bl_mainFlow>:
87f0529c:	3c0287f1 	lui	v0,0x87f1
87f052a0:	27bdffd0 	addiu	sp,sp,-48
87f052a4:	8c428f3c 	lw	v0,-28868(v0)
87f052a8:	afb00014 	sw	s0,20(sp)
87f052ac:	3c1087f1 	lui	s0,0x87f1
87f052b0:	afb10018 	sw	s1,24(sp)
87f052b4:	24424000 	addiu	v0,v0,16384
87f052b8:	3c03000a 	lui	v1,0xa
87f052bc:	3c1187f1 	lui	s1,0x87f1
87f052c0:	afb2001c 	sw	s2,28(sp)
87f052c4:	ae028f5c 	sw	v0,-28836(s0)
87f052c8:	3c1287f1 	lui	s2,0x87f1
87f052cc:	00431021 	addu	v0,v0,v1
87f052d0:	ae228f58 	sw	v0,-28840(s1)
87f052d4:	3c0387f1 	lui	v1,0x87f1
87f052d8:	24424000 	addiu	v0,v0,16384
87f052dc:	ae428f50 	sw	v0,-28848(s2)
87f052e0:	24424000 	addiu	v0,v0,16384
87f052e4:	ac628f48 	sw	v0,-28856(v1)
87f052e8:	3c0287f1 	lui	v0,0x87f1
87f052ec:	3c038000 	lui	v1,0x8000
87f052f0:	ac438f4c 	sw	v1,-28852(v0)
87f052f4:	3c0487f0 	lui	a0,0x87f0
87f052f8:	3c0287f1 	lui	v0,0x87f1
87f052fc:	3c038038 	lui	v1,0x8038
87f05300:	24845b58 	addiu	a0,a0,23384
87f05304:	afbe0028 	sw	s8,40(sp)
87f05308:	03a0f021 	move	s8,sp
87f0530c:	ac438f54 	sw	v1,-28844(v0)
87f05310:	afbf002c 	sw	ra,44(sp)
87f05314:	afb40024 	sw	s4,36(sp)
87f05318:	0dfc1e58 	jal	87f07960 <flash_installAccessCB>
87f0531c:	afb30020 	sw	s3,32(sp)
87f05320:	0dfc1b5d 	jal	87f06d74 <uart_openSystemUART>
87f05324:	00000000 	nop
87f05328:	0dfc1b81 	jal	87f06e04 <rtc_resetShutDownTimer>
87f0532c:	00000000 	nop
87f05330:	3c0287f1 	lui	v0,0x87f1
87f05334:	0dfc1b4a 	jal	87f06d28 <fLib_PutSerialStr>
87f05338:	8c448d00 	lw	a0,-29440(v0)
87f0533c:	3c0487f1 	lui	a0,0x87f1
87f05340:	0dfc1b4a 	jal	87f06d28 <fLib_PutSerialStr>
87f05344:	24848d68 	addiu	a0,a0,-29336
87f05348:	0dfc1a57 	jal	87f0695c <UTL_setDrvTmpBufferAddress>
87f0534c:	8e248f58 	lw	a0,-28840(s1)
87f05350:	3c0487f0 	lui	a0,0x87f0
87f05354:	0dfc1e61 	jal	87f07984 <flash_installIdentifyCB>
87f05358:	248450fc 	addiu	a0,a0,20732
87f0535c:	0dfc1bc1 	jal	87f06f04 <gpio_getPin>
87f05360:	240400e2 	li	a0,226
87f05364:	10400003 	beqz	v0,87f05374 <bl_mainFlow+0xd8>
87f05368:	00008821 	move	s1,zero
87f0536c:	09fc155e 	j	87f05578 <bl_mainFlow+0x2dc>
87f05370:	00008021 	move	s0,zero
87f05374:	0dfc1c8c 	jal	87f07230 <card_open>
87f05378:	00000000 	nop
87f0537c:	00408821 	move	s1,v0
87f05380:	24020001 	li	v0,1
87f05384:	1622004d 	bne	s1,v0,87f054bc <bl_mainFlow+0x220>
87f05388:	3c0487f1 	lui	a0,0x87f1
87f0538c:	8e048f5c 	lw	a0,-28836(s0)
87f05390:	0dfc195d 	jal	87f06574 <fat_initFAT>
87f05394:	3c05000a 	lui	a1,0xa
87f05398:	14510047 	bne	v0,s1,87f054b8 <bl_mainFlow+0x21c>
87f0539c:	00408021 	move	s0,v0
87f053a0:	3c0287f1 	lui	v0,0x87f1
87f053a4:	00008821 	move	s1,zero
87f053a8:	0dfc1882 	jal	87f06208 <fat_open_rootfile>
87f053ac:	8c448cf8 	lw	a0,-29448(v0)
87f053b0:	14500007 	bne	v0,s0,87f053d0 <bl_mainFlow+0x134>
87f053b4:	3c0287f1 	lui	v0,0x87f1
87f053b8:	8e448f50 	lw	a0,-28848(s2)
87f053bc:	0dfc181b 	jal	87f0606c <fat_read_rootfile>
87f053c0:	00002821 	move	a1,zero
87f053c4:	0dfc180e 	jal	87f06038 <fat_close_rootfile>
87f053c8:	24110002 	li	s1,2
87f053cc:	3c0287f1 	lui	v0,0x87f1
87f053d0:	24120001 	li	s2,1
87f053d4:	0dfc1882 	jal	87f06208 <fat_open_rootfile>
87f053d8:	8c448cf4 	lw	a0,-29452(v0)
87f053dc:	1452000e 	bne	v0,s2,87f05418 <bl_mainFlow+0x17c>
87f053e0:	3c0287f1 	lui	v0,0x87f1
87f053e4:	3c1087f1 	lui	s0,0x87f1
87f053e8:	24050200 	li	a1,512
87f053ec:	8e048f4c 	lw	a0,-28852(s0)
87f053f0:	0dfc181b 	jal	87f0606c <fat_read_rootfile>
87f053f4:	36310001 	ori	s1,s1,0x1
87f053f8:	8e048f4c 	lw	a0,-28852(s0)
87f053fc:	8c850068 	lw	a1,104(a0)
87f05400:	0dfc181b 	jal	87f0606c <fat_read_rootfile>
87f05404:	00000000 	nop
87f05408:	0dfc180e 	jal	87f06038 <fat_close_rootfile>
87f0540c:	00408021 	move	s0,v0
87f05410:	09fc1533 	j	87f054cc <bl_mainFlow+0x230>
87f05414:	00000000 	nop
87f05418:	00008021 	move	s0,zero
87f0541c:	0dfc1882 	jal	87f06208 <fat_open_rootfile>
87f05420:	8c448cfc 	lw	a0,-29444(v0)
87f05424:	14520029 	bne	v0,s2,87f054cc <bl_mainFlow+0x230>
87f05428:	24050200 	li	a1,512
87f0542c:	3c1087f1 	lui	s0,0x87f1
87f05430:	0dfc181b 	jal	87f0606c <fat_read_rootfile>
87f05434:	8e048f4c 	lw	a0,-28852(s0)
87f05438:	8e028f4c 	lw	v0,-28852(s0)
87f0543c:	3c03314c 	lui	v1,0x314c
87f05440:	34634342 	ori	v1,v1,0x4342
87f05444:	8c440000 	lw	a0,0(v0)
87f05448:	54830012 	bnel	a0,v1,87f05494 <bl_mainFlow+0x1f8>
87f0544c:	3c0287f1 	lui	v0,0x87f1
87f05450:	8c42000c 	lw	v0,12(v0)
87f05454:	00022602 	srl	a0,v0,0x18
87f05458:	00021e00 	sll	v1,v0,0x18
87f0545c:	00831825 	or	v1,a0,v1
87f05460:	3044ff00 	andi	a0,v0,0xff00
87f05464:	00042200 	sll	a0,a0,0x8
87f05468:	00021202 	srl	v0,v0,0x8
87f0546c:	00641825 	or	v1,v1,a0
87f05470:	3042ff00 	andi	v0,v0,0xff00
87f05474:	00621025 	or	v0,v1,v0
87f05478:	24420013 	addiu	v0,v0,19
87f0547c:	2403fffc 	li	v1,-4
87f05480:	00431024 	and	v0,v0,v1
87f05484:	3c038000 	lui	v1,0x8000
87f05488:	00431021 	addu	v0,v0,v1
87f0548c:	ae028f4c 	sw	v0,-28852(s0)
87f05490:	3c0287f1 	lui	v0,0x87f1
87f05494:	36310004 	ori	s1,s1,0x4
87f05498:	8c448f4c 	lw	a0,-28852(v0)
87f0549c:	8c850068 	lw	a1,104(a0)
87f054a0:	0dfc181b 	jal	87f0606c <fat_read_rootfile>
87f054a4:	00000000 	nop
87f054a8:	0dfc180e 	jal	87f06038 <fat_close_rootfile>
87f054ac:	00408021 	move	s0,v0
87f054b0:	09fc1533 	j	87f054cc <bl_mainFlow+0x230>
87f054b4:	00000000 	nop
87f054b8:	3c0487f1 	lui	a0,0x87f1
87f054bc:	0dfc1b4a 	jal	87f06d28 <fLib_PutSerialStr>
87f054c0:	24848d98 	addiu	a0,a0,-29288
87f054c4:	00008821 	move	s1,zero
87f054c8:	00008021 	move	s0,zero
87f054cc:	0dfc1c7e 	jal	87f071f8 <card_close>
87f054d0:	00000000 	nop
87f054d4:	32220005 	andi	v0,s1,0x5
87f054d8:	10400027 	beqz	v0,87f05578 <bl_mainFlow+0x2dc>
87f054dc:	3c0387f1 	lui	v1,0x87f1
87f054e0:	3c02b000 	lui	v0,0xb000
87f054e4:	8c648f4c 	lw	a0,-28852(v1)
87f054e8:	8c850000 	lw	a1,0(a0)
87f054ec:	00a22824 	and	a1,a1,v0
87f054f0:	14a20195 	bne	a1,v0,87f05b48 <bl_mainFlow+0x8ac>
87f054f4:	3c02b090 	lui	v0,0xb090
87f054f8:	26100003 	addiu	s0,s0,3
87f054fc:	8c440128 	lw	a0,296(v0)
87f05500:	34840002 	ori	a0,a0,0x2
87f05504:	ac440128 	sw	a0,296(v0)
87f05508:	3c02b080 	lui	v0,0xb080
87f0550c:	8c440128 	lw	a0,296(v0)
87f05510:	34840006 	ori	a0,a0,0x6
87f05514:	ac440128 	sw	a0,296(v0)
87f05518:	3c02b002 	lui	v0,0xb002
87f0551c:	3c040003 	lui	a0,0x3
87f05520:	8c450060 	lw	a1,96(v0)
87f05524:	34840002 	ori	a0,a0,0x2
87f05528:	00a42025 	or	a0,a1,a0
87f0552c:	ac440060 	sw	a0,96(v0)
87f05530:	2402fffc 	li	v0,-4
87f05534:	02028024 	and	s0,s0,v0
87f05538:	3c04b07f 	lui	a0,0xb07f
87f0553c:	09fc1555 	j	87f05554 <bl_mainFlow+0x2b8>
87f05540:	00001021 	move	v0,zero
87f05544:	00442821 	addu	a1,v0,a0
87f05548:	7c46300a 	lwx	a2,a2(v0)
87f0554c:	24420004 	addiu	v0,v0,4
87f05550:	aca60000 	sw	a2,0(a1)
87f05554:	0050282b 	sltu	a1,v0,s0
87f05558:	14a0fffa 	bnez	a1,87f05544 <bl_mainFlow+0x2a8>
87f0555c:	8c668f4c 	lw	a2,-28852(v1)
87f05560:	3c0287f1 	lui	v0,0x87f1
87f05564:	8c428f4c 	lw	v0,-28852(v0)
87f05568:	8c430000 	lw	v1,0(v0)
87f0556c:	3c028000 	lui	v0,0x8000
87f05570:	09fc16c7 	j	87f05b1c <bl_mainFlow+0x880>
87f05574:	ac430000 	sw	v1,0(v0)
87f05578:	0dfc220a 	jal	87f08828 <flash_open>
87f0557c:	00000000 	nop
87f05580:	0440010d 	bltz	v0,87f059b8 <bl_mainFlow+0x71c>
87f05584:	3c03a7f0 	lui	v1,0xa7f0
87f05588:	8c640224 	lw	a0,548(v1)
87f0558c:	3c03b080 	lui	v1,0xb080
87f05590:	ac64024c 	sw	a0,588(v1)
87f05594:	14400003 	bnez	v0,87f055a4 <bl_mainFlow+0x308>
87f05598:	00000000 	nop
87f0559c:	3c024649 	lui	v0,0x4649
87f055a0:	34425053 	ori	v0,v0,0x5053
87f055a4:	ac620248 	sw	v0,584(v1)
87f055a8:	0dfc1e40 	jal	87f07900 <flash_getBlockSize>
87f055ac:	00000000 	nop
87f055b0:	0dfc1e4f 	jal	87f0793c <flash_getTotalSize>
87f055b4:	00409021 	move	s2,v0
87f055b8:	0040a021 	move	s4,v0
87f055bc:	32220002 	andi	v0,s1,0x2
87f055c0:	1040003f 	beqz	v0,87f056c0 <bl_mainFlow+0x424>
87f055c4:	32220001 	andi	v0,s1,0x1
87f055c8:	3c0287f1 	lui	v0,0x87f1
87f055cc:	00001821 	move	v1,zero
87f055d0:	8c458f50 	lw	a1,-28848(v0)
87f055d4:	24062000 	li	a2,8192
87f055d8:	00a02021 	move	a0,a1
87f055dc:	00001021 	move	v0,zero
87f055e0:	94870000 	lhu	a3,0(a0)
87f055e4:	24840002 	addiu	a0,a0,2
87f055e8:	00473821 	addu	a3,v0,a3
87f055ec:	00671821 	addu	v1,v1,a3
87f055f0:	24420001 	addiu	v0,v0,1
87f055f4:	1446fffa 	bne	v0,a2,87f055e0 <bl_mainFlow+0x344>
87f055f8:	3063ffff 	andi	v1,v1,0xffff
87f055fc:	94a40030 	lhu	a0,48(a1)
87f05600:	3402aa55 	li	v0,0xaa55
87f05604:	54820004 	bnel	a0,v0,87f05618 <bl_mainFlow+0x37c>
87f05608:	3c0487f1 	lui	a0,0x87f1
87f0560c:	50600005 	beqzl	v1,87f05624 <bl_mainFlow+0x388>
87f05610:	3c0487f1 	lui	a0,0x87f1
87f05614:	3c0487f1 	lui	a0,0x87f1
87f05618:	0dfc1462 	jal	87f05188 <bl_displayErrMsg>
87f0561c:	24848d18 	addiu	a0,a0,-29416
87f05620:	3c0487f1 	lui	a0,0x87f1
87f05624:	0dfc1b4a 	jal	87f06d28 <fLib_PutSerialStr>
87f05628:	24848da4 	addiu	a0,a0,-29276
87f0562c:	3c0287f1 	lui	v0,0x87f1
87f05630:	00002021 	move	a0,zero
87f05634:	8c468f50 	lw	a2,-28848(v0)
87f05638:	24054000 	li	a1,16384
87f0563c:	0dfc1eaf 	jal	87f07abc <flash_writeSectors>
87f05640:	00003821 	move	a3,zero
87f05644:	04410005 	bgez	v0,87f0565c <bl_mainFlow+0x3c0>
87f05648:	3c0287f1 	lui	v0,0x87f1
87f0564c:	3c0487f1 	lui	a0,0x87f1
87f05650:	0dfc1462 	jal	87f05188 <bl_displayErrMsg>
87f05654:	24848d08 	addiu	a0,a0,-29432
87f05658:	3c0287f1 	lui	v0,0x87f1
87f0565c:	00002021 	move	a0,zero
87f05660:	8c468f50 	lw	a2,-28848(v0)
87f05664:	3c0287f1 	lui	v0,0x87f1
87f05668:	24c64000 	addiu	a2,a2,16384
87f0566c:	24054000 	li	a1,16384
87f05670:	00003821 	move	a3,zero
87f05674:	0dfc20ac 	jal	87f082b0 <flash_readSectors>
87f05678:	ac468f54 	sw	a2,-28844(v0)
87f0567c:	04410005 	bgez	v0,87f05694 <bl_mainFlow+0x3f8>
87f05680:	3c0287f1 	lui	v0,0x87f1
87f05684:	3c0487f1 	lui	a0,0x87f1
87f05688:	0dfc1462 	jal	87f05188 <bl_displayErrMsg>
87f0568c:	24848db0 	addiu	a0,a0,-29264
87f05690:	3c0287f1 	lui	v0,0x87f1
87f05694:	24064000 	li	a2,16384
87f05698:	8c448f50 	lw	a0,-28848(v0)
87f0569c:	3c0287f1 	lui	v0,0x87f1
87f056a0:	0dfc1ac2 	jal	87f06b08 <memcmp>
87f056a4:	8c458f54 	lw	a1,-28844(v0)
87f056a8:	10400005 	beqz	v0,87f056c0 <bl_mainFlow+0x424>
87f056ac:	32220001 	andi	v0,s1,0x1
87f056b0:	3c0487f1 	lui	a0,0x87f1
87f056b4:	0dfc1462 	jal	87f05188 <bl_displayErrMsg>
87f056b8:	24848dbc 	addiu	a0,a0,-29252
87f056bc:	32220001 	andi	v0,s1,0x1
87f056c0:	10400050 	beqz	v0,87f05804 <bl_mainFlow+0x568>
87f056c4:	32220004 	andi	v0,s1,0x4
87f056c8:	3c0487f1 	lui	a0,0x87f1
87f056cc:	0dfc1b4a 	jal	87f06d28 <fLib_PutSerialStr>
87f056d0:	24848dcc 	addiu	a0,a0,-29236
87f056d4:	3c0287f1 	lui	v0,0x87f1
87f056d8:	3c03314c 	lui	v1,0x314c
87f056dc:	8c428f4c 	lw	v0,-28852(v0)
87f056e0:	34634342 	ori	v1,v1,0x4342
87f056e4:	8c440000 	lw	a0,0(v0)
87f056e8:	1083000b 	beq	a0,v1,87f05718 <bl_mainFlow+0x47c>
87f056ec:	00000000 	nop
87f056f0:	8c530068 	lw	s3,104(v0)
87f056f4:	26624000 	addiu	v0,s3,16384
87f056f8:	0282a02b 	sltu	s4,s4,v0
87f056fc:	52800012 	beqzl	s4,87f05748 <bl_mainFlow+0x4ac>
87f05700:	3c040038 	lui	a0,0x38
87f05704:	3c0487f1 	lui	a0,0x87f1
87f05708:	0dfc1b4a 	jal	87f06d28 <fLib_PutSerialStr>
87f0570c:	24848dd8 	addiu	a0,a0,-29224
87f05710:	09fc15c4 	j	87f05710 <bl_mainFlow+0x474>
87f05714:	00000000 	nop
87f05718:	8c42000c 	lw	v0,12(v0)
87f0571c:	00021e00 	sll	v1,v0,0x18
87f05720:	00029e02 	srl	s3,v0,0x18
87f05724:	02639825 	or	s3,s3,v1
87f05728:	3043ff00 	andi	v1,v0,0xff00
87f0572c:	00031a00 	sll	v1,v1,0x8
87f05730:	00021202 	srl	v0,v0,0x8
87f05734:	02639825 	or	s3,s3,v1
87f05738:	3042ff00 	andi	v0,v0,0xff00
87f0573c:	02629825 	or	s3,s3,v0
87f05740:	26730010 	addiu	s3,s3,16
87f05744:	3c040038 	lui	a0,0x38
87f05748:	00932023 	subu	a0,a0,s3
87f0574c:	0092001b 	divu	zero,a0,s2
87f05750:	024001f4 	teq	s2,zero,0x7
87f05754:	00002012 	mflo	a0
87f05758:	0dfc1e48 	jal	87f07920 <flash_setReservedBadBlockNumber>
87f0575c:	2484fffc 	addiu	a0,a0,-4
87f05760:	3c0287f1 	lui	v0,0x87f1
87f05764:	24040004 	li	a0,4
87f05768:	8c468f4c 	lw	a2,-28852(v0)
87f0576c:	02602821 	move	a1,s3
87f05770:	0dfc1eaf 	jal	87f07abc <flash_writeSectors>
87f05774:	24070002 	li	a3,2
87f05778:	04410005 	bgez	v0,87f05790 <bl_mainFlow+0x4f4>
87f0577c:	3c0287f1 	lui	v0,0x87f1
87f05780:	3c0487f1 	lui	a0,0x87f1
87f05784:	0dfc1462 	jal	87f05188 <bl_displayErrMsg>
87f05788:	24848d08 	addiu	a0,a0,-29432
87f0578c:	3c0287f1 	lui	v0,0x87f1
87f05790:	24040004 	li	a0,4
87f05794:	8c468f4c 	lw	a2,-28852(v0)
87f05798:	2402fffc 	li	v0,-4
87f0579c:	24c60003 	addiu	a2,a2,3
87f057a0:	00d33021 	addu	a2,a2,s3
87f057a4:	00c23024 	and	a2,a2,v0
87f057a8:	3c0287f1 	lui	v0,0x87f1
87f057ac:	02602821 	move	a1,s3
87f057b0:	24070002 	li	a3,2
87f057b4:	0dfc20ac 	jal	87f082b0 <flash_readSectors>
87f057b8:	ac468f54 	sw	a2,-28844(v0)
87f057bc:	04410005 	bgez	v0,87f057d4 <bl_mainFlow+0x538>
87f057c0:	3c0287f1 	lui	v0,0x87f1
87f057c4:	3c0487f1 	lui	a0,0x87f1
87f057c8:	0dfc1462 	jal	87f05188 <bl_displayErrMsg>
87f057cc:	24848db0 	addiu	a0,a0,-29264
87f057d0:	3c0287f1 	lui	v0,0x87f1
87f057d4:	02603021 	move	a2,s3
87f057d8:	8c448f4c 	lw	a0,-28852(v0)
87f057dc:	3c0287f1 	lui	v0,0x87f1
87f057e0:	0dfc1ac2 	jal	87f06b08 <memcmp>
87f057e4:	8c458f54 	lw	a1,-28844(v0)
87f057e8:	50400005 	beqzl	v0,87f05800 <bl_mainFlow+0x564>
87f057ec:	36310100 	ori	s1,s1,0x100
87f057f0:	3c0487f1 	lui	a0,0x87f1
87f057f4:	0dfc1462 	jal	87f05188 <bl_displayErrMsg>
87f057f8:	24848df8 	addiu	a0,a0,-29192
87f057fc:	36310100 	ori	s1,s1,0x100
87f05800:	32220004 	andi	v0,s1,0x4
87f05804:	14400068 	bnez	v0,87f059a8 <bl_mainFlow+0x70c>
87f05808:	00000000 	nop
87f0580c:	3c0487f1 	lui	a0,0x87f1
87f05810:	0dfc1b4a 	jal	87f06d28 <fLib_PutSerialStr>
87f05814:	24848e08 	addiu	a0,a0,-29176
87f05818:	24040004 	li	a0,4
87f0581c:	02402821 	move	a1,s2
87f05820:	3c068000 	lui	a2,0x8000
87f05824:	24070002 	li	a3,2
87f05828:	0dfc20ac 	jal	87f082b0 <flash_readSectors>
87f0582c:	36310008 	ori	s1,s1,0x8
87f05830:	04410005 	bgez	v0,87f05848 <bl_mainFlow+0x5ac>
87f05834:	3c138000 	lui	s3,0x8000
87f05838:	3c0487f1 	lui	a0,0x87f1
87f0583c:	0dfc1462 	jal	87f05188 <bl_displayErrMsg>
87f05840:	24848d08 	addiu	a0,a0,-29432
87f05844:	3c138000 	lui	s3,0x8000
87f05848:	3c02314c 	lui	v0,0x314c
87f0584c:	8e630000 	lw	v1,0(s3)
87f05850:	34424342 	ori	v0,v0,0x4342
87f05854:	50620023 	beql	v1,v0,87f058e4 <bl_mainFlow+0x648>
87f05858:	3c0487f1 	lui	a0,0x87f1
87f0585c:	8e620090 	lw	v0,144(s3)
87f05860:	30420001 	andi	v0,v0,0x1
87f05864:	5040000e 	beqzl	v0,87f058a0 <bl_mainFlow+0x604>
87f05868:	3c0487f1 	lui	a0,0x87f1
87f0586c:	8e70030c 	lw	s0,780(s3)
87f05870:	0212001b 	divu	zero,s0,s2
87f05874:	024001f4 	teq	s2,zero,0x7
87f05878:	00001010 	mfhi	v0
87f0587c:	10400004 	beqz	v0,87f05890 <bl_mainFlow+0x5f4>
87f05880:	3c0487f1 	lui	a0,0x87f1
87f05884:	00001012 	mflo	v0
87f05888:	24500001 	addiu	s0,v0,1
87f0588c:	72128002 	mul	s0,s0,s2
87f05890:	0dfc1b4a 	jal	87f06d28 <fLib_PutSerialStr>
87f05894:	24848e14 	addiu	a0,a0,-29164
87f05898:	09fc1630 	j	87f058c0 <bl_mainFlow+0x624>
87f0589c:	3c068000 	lui	a2,0x8000
87f058a0:	0dfc1b4a 	jal	87f06d28 <fLib_PutSerialStr>
87f058a4:	24848e1c 	addiu	a0,a0,-29156
87f058a8:	8e700068 	lw	s0,104(s3)
87f058ac:	16000004 	bnez	s0,87f058c0 <bl_mainFlow+0x624>
87f058b0:	3c068000 	lui	a2,0x8000
87f058b4:	3c10000e 	lui	s0,0xe
87f058b8:	02128023 	subu	s0,s0,s2
87f058bc:	00108080 	sll	s0,s0,0x2
87f058c0:	24040005 	li	a0,5
87f058c4:	02122823 	subu	a1,s0,s2
87f058c8:	02463021 	addu	a2,s2,a2
87f058cc:	0dfc20ac 	jal	87f082b0 <flash_readSectors>
87f058d0:	24070002 	li	a3,2
87f058d4:	04410034 	bgez	v0,87f059a8 <bl_mainFlow+0x70c>
87f058d8:	00000000 	nop
87f058dc:	09fc1648 	j	87f05920 <bl_mainFlow+0x684>
87f058e0:	3c0487f1 	lui	a0,0x87f1
87f058e4:	0dfc1b4a 	jal	87f06d28 <fLib_PutSerialStr>
87f058e8:	24848e24 	addiu	a0,a0,-29148
87f058ec:	8e62000c 	lw	v0,12(s3)
87f058f0:	00021e00 	sll	v1,v0,0x18
87f058f4:	00028602 	srl	s0,v0,0x18
87f058f8:	02038025 	or	s0,s0,v1
87f058fc:	3043ff00 	andi	v1,v0,0xff00
87f05900:	00031a00 	sll	v1,v1,0x8
87f05904:	00021202 	srl	v0,v0,0x8
87f05908:	02038025 	or	s0,s0,v1
87f0590c:	3042ff00 	andi	v0,v0,0xff00
87f05910:	02028025 	or	s0,s0,v0
87f05914:	16000006 	bnez	s0,87f05930 <bl_mainFlow+0x694>
87f05918:	36660013 	ori	a2,s3,0x13
87f0591c:	3c0487f1 	lui	a0,0x87f1
87f05920:	0dfc1462 	jal	87f05188 <bl_displayErrMsg>
87f05924:	24848d08 	addiu	a0,a0,-29432
87f05928:	09fc166a 	j	87f059a8 <bl_mainFlow+0x70c>
87f0592c:	00000000 	nop
87f05930:	2402fffc 	li	v0,-4
87f05934:	02063021 	addu	a2,s0,a2
87f05938:	00c23024 	and	a2,a2,v0
87f0593c:	3c0287f1 	lui	v0,0x87f1
87f05940:	24040004 	li	a0,4
87f05944:	26050010 	addiu	a1,s0,16
87f05948:	24070002 	li	a3,2
87f0594c:	0dfc20ac 	jal	87f082b0 <flash_readSectors>
87f05950:	ac468f54 	sw	a2,-28844(v0)
87f05954:	04410005 	bgez	v0,87f0596c <bl_mainFlow+0x6d0>
87f05958:	3c0287f1 	lui	v0,0x87f1
87f0595c:	3c0487f1 	lui	a0,0x87f1
87f05960:	0dfc1462 	jal	87f05188 <bl_displayErrMsg>
87f05964:	24848d08 	addiu	a0,a0,-29432
87f05968:	3c0287f1 	lui	v0,0x87f1
87f0596c:	02003021 	move	a2,s0
87f05970:	8c448f54 	lw	a0,-28844(v0)
87f05974:	3c028ff0 	lui	v0,0x8ff0
87f05978:	2442415c 	addiu	v0,v0,16732
87f0597c:	24840010 	addiu	a0,a0,16
87f05980:	0040f809 	jalr	v0
87f05984:	3c058000 	lui	a1,0x8000
87f05988:	3c028000 	lui	v0,0x8000
87f0598c:	8c500068 	lw	s0,104(v0)
87f05990:	32220001 	andi	v0,s1,0x1
87f05994:	10400004 	beqz	v0,87f059a8 <bl_mainFlow+0x70c>
87f05998:	00000000 	nop
87f0599c:	3c048000 	lui	a0,0x8000
87f059a0:	0dfc1469 	jal	87f051a4 <bl_checkFW>
87f059a4:	02002821 	move	a1,s0
87f059a8:	0dfc1e2f 	jal	87f078bc <flash_close>
87f059ac:	00000000 	nop
87f059b0:	09fc1673 	j	87f059cc <bl_mainFlow+0x730>
87f059b4:	32220004 	andi	v0,s1,0x4
87f059b8:	3c0487f1 	lui	a0,0x87f1
87f059bc:	0dfc1b4a 	jal	87f06d28 <fLib_PutSerialStr>
87f059c0:	24848e34 	addiu	a0,a0,-29132
87f059c4:	00009021 	move	s2,zero
87f059c8:	32220004 	andi	v0,s1,0x4
87f059cc:	10400036 	beqz	v0,87f05aa8 <bl_mainFlow+0x80c>
87f059d0:	3c138000 	lui	s3,0x8000
87f059d4:	3c0487f1 	lui	a0,0x87f1
87f059d8:	3c1387f1 	lui	s3,0x87f1
87f059dc:	0dfc1b4a 	jal	87f06d28 <fLib_PutSerialStr>
87f059e0:	24848e48 	addiu	a0,a0,-29112
87f059e4:	8e628f4c 	lw	v0,-28852(s3)
87f059e8:	3c03314c 	lui	v1,0x314c
87f059ec:	34634342 	ori	v1,v1,0x4342
87f059f0:	8c440000 	lw	a0,0(v0)
87f059f4:	50830014 	beql	a0,v1,87f05a48 <bl_mainFlow+0x7ac>
87f059f8:	3c0487f1 	lui	a0,0x87f1
87f059fc:	8c430090 	lw	v1,144(v0)
87f05a00:	30630001 	andi	v1,v1,0x1
87f05a04:	5060000c 	beqzl	v1,87f05a38 <bl_mainFlow+0x79c>
87f05a08:	3c0487f1 	lui	a0,0x87f1
87f05a0c:	8c420078 	lw	v0,120(v0)
87f05a10:	30420001 	andi	v0,v0,0x1
87f05a14:	50400008 	beqzl	v0,87f05a38 <bl_mainFlow+0x79c>
87f05a18:	3c0487f1 	lui	a0,0x87f1
87f05a1c:	3c0487f1 	lui	a0,0x87f1
87f05a20:	0dfc1b4a 	jal	87f06d28 <fLib_PutSerialStr>
87f05a24:	24848e50 	addiu	a0,a0,-29104
87f05a28:	8e628f4c 	lw	v0,-28852(s3)
87f05a2c:	8c50030c 	lw	s0,780(v0)
87f05a30:	09fc16aa 	j	87f05aa8 <bl_mainFlow+0x80c>
87f05a34:	3c138000 	lui	s3,0x8000
87f05a38:	0dfc1b4a 	jal	87f06d28 <fLib_PutSerialStr>
87f05a3c:	24848e5c 	addiu	a0,a0,-29092
87f05a40:	09fc16aa 	j	87f05aa8 <bl_mainFlow+0x80c>
87f05a44:	3c138000 	lui	s3,0x8000
87f05a48:	0dfc1b4a 	jal	87f06d28 <fLib_PutSerialStr>
87f05a4c:	24848e68 	addiu	a0,a0,-29080
87f05a50:	8e648f4c 	lw	a0,-28852(s3)
87f05a54:	3c058000 	lui	a1,0x8000
87f05a58:	8c82000c 	lw	v0,12(a0)
87f05a5c:	00021e00 	sll	v1,v0,0x18
87f05a60:	00023602 	srl	a2,v0,0x18
87f05a64:	00c33025 	or	a2,a2,v1
87f05a68:	3043ff00 	andi	v1,v0,0xff00
87f05a6c:	00031a00 	sll	v1,v1,0x8
87f05a70:	00021202 	srl	v0,v0,0x8
87f05a74:	00c33025 	or	a2,a2,v1
87f05a78:	3042ff00 	andi	v0,v0,0xff00
87f05a7c:	00c23025 	or	a2,a2,v0
87f05a80:	3c028ff0 	lui	v0,0x8ff0
87f05a84:	2442415c 	addiu	v0,v0,16732
87f05a88:	0040f809 	jalr	v0
87f05a8c:	24840010 	addiu	a0,a0,16
87f05a90:	3c028000 	lui	v0,0x8000
87f05a94:	3c048000 	lui	a0,0x8000
87f05a98:	8c500068 	lw	s0,104(v0)
87f05a9c:	0dfc1469 	jal	87f051a4 <bl_checkFW>
87f05aa0:	02002821 	move	a1,s0
87f05aa4:	3c138000 	lui	s3,0x8000
87f05aa8:	36640080 	ori	a0,s3,0x80
87f05aac:	00002821 	move	a1,zero
87f05ab0:	0dfc1a60 	jal	87f06980 <memset>
87f05ab4:	24060010 	li	a2,16
87f05ab8:	3c0587f1 	lui	a1,0x87f1
87f05abc:	36640080 	ori	a0,s3,0x80
87f05ac0:	24a58e78 	addiu	a1,a1,-29064
87f05ac4:	0dfc1a8b 	jal	87f06a2c <memcpy>
87f05ac8:	24060005 	li	a2,5
87f05acc:	3c020100 	lui	v0,0x100
87f05ad0:	34420021 	ori	v0,v0,0x21
87f05ad4:	ae620088 	sw	v0,136(s3)
87f05ad8:	ae710094 	sw	s1,148(s3)
87f05adc:	ae700098 	sw	s0,152(s3)
87f05ae0:	0dfc1bed 	jal	87f06fb4 <timer_getLdrElapse>
87f05ae4:	00000000 	nop
87f05ae8:	ae62009c 	sw	v0,156(s3)
87f05aec:	00129080 	sll	s2,s2,0x2
87f05af0:	3c020038 	lui	v0,0x38
87f05af4:	ae7200a0 	sw	s2,160(s3)
87f05af8:	ae6200a4 	sw	v0,164(s3)
87f05afc:	3c028ff0 	lui	v0,0x8ff0
87f05b00:	24424110 	addiu	v0,v0,16656
87f05b04:	0040f809 	jalr	v0
87f05b08:	00000000 	nop
87f05b0c:	3c028ff0 	lui	v0,0x8ff0
87f05b10:	244240b4 	addiu	v0,v0,16564
87f05b14:	0040f809 	jalr	v0
87f05b18:	00000000 	nop
87f05b1c:	03c0e821 	move	sp,s8
87f05b20:	24020001 	li	v0,1
87f05b24:	8fbf002c 	lw	ra,44(sp)
87f05b28:	8fbe0028 	lw	s8,40(sp)
87f05b2c:	8fb40024 	lw	s4,36(sp)
87f05b30:	8fb30020 	lw	s3,32(sp)
87f05b34:	8fb2001c 	lw	s2,28(sp)
87f05b38:	8fb10018 	lw	s1,24(sp)
87f05b3c:	8fb00014 	lw	s0,20(sp)
87f05b40:	03e00008 	jr	ra
87f05b44:	27bd0030 	addiu	sp,sp,48
87f05b48:	0dfc1469 	jal	87f051a4 <bl_checkFW>
87f05b4c:	02002821 	move	a1,s0
87f05b50:	09fc155e 	j	87f05578 <bl_mainFlow+0x2dc>
87f05b54:	00000000 	nop

Disassembly of section .text.Toggle_LED_R:

87f05b58 <Toggle_LED_R>:
87f05b58:	27bdffe8 	addiu	sp,sp,-24
87f05b5c:	2404000d 	li	a0,13
87f05b60:	afbe0010 	sw	s8,16(sp)
87f05b64:	24050001 	li	a1,1
87f05b68:	afbf0014 	sw	ra,20(sp)
87f05b6c:	0dfc1b8b 	jal	87f06e2c <gpio_setDir>
87f05b70:	03a0f021 	move	s8,sp
87f05b74:	3c0287f1 	lui	v0,0x87f1
87f05b78:	8c438f44 	lw	v1,-28860(v0)
87f05b7c:	24020009 	li	v0,9
87f05b80:	0062001b 	divu	zero,v1,v0
87f05b84:	004001f4 	teq	v0,zero,0x7
87f05b88:	00001010 	mfhi	v0
87f05b8c:	10400005 	beqz	v0,87f05ba4 <Toggle_LED_R+0x4c>
87f05b90:	24030005 	li	v1,5
87f05b94:	1443000a 	bne	v0,v1,87f05bc0 <Toggle_LED_R+0x68>
87f05b98:	3c0287f1 	lui	v0,0x87f1
87f05b9c:	09fc16ed 	j	87f05bb4 <Toggle_LED_R+0x5c>
87f05ba0:	00000000 	nop
87f05ba4:	0dfc1ba3 	jal	87f06e8c <gpio_setPin>
87f05ba8:	2404000d 	li	a0,13
87f05bac:	09fc16f0 	j	87f05bc0 <Toggle_LED_R+0x68>
87f05bb0:	3c0287f1 	lui	v0,0x87f1
87f05bb4:	0dfc1bb2 	jal	87f06ec8 <gpio_clearPin>
87f05bb8:	2404000d 	li	a0,13
87f05bbc:	3c0287f1 	lui	v0,0x87f1
87f05bc0:	03c0e821 	move	sp,s8
87f05bc4:	8c438f44 	lw	v1,-28860(v0)
87f05bc8:	8fbf0014 	lw	ra,20(sp)
87f05bcc:	24630001 	addiu	v1,v1,1
87f05bd0:	8fbe0010 	lw	s8,16(sp)
87f05bd4:	ac438f44 	sw	v1,-28860(v0)
87f05bd8:	03e00008 	jr	ra
87f05bdc:	27bd0018 	addiu	sp,sp,24

Disassembly of section .text.BL_PostHandle:

87f05be0 <BL_PostHandle>:
87f05be0:	27bdffe8 	addiu	sp,sp,-24
87f05be4:	3c03a7f0 	lui	v1,0xa7f0
87f05be8:	3c054f7f 	lui	a1,0x4f7f
87f05bec:	3c04b080 	lui	a0,0xb080
87f05bf0:	24630000 	addiu	v1,v1,0
87f05bf4:	34a5fe10 	ori	a1,a1,0xfe10
87f05bf8:	afbe0010 	sw	s8,16(sp)
87f05bfc:	34820200 	ori	v0,a0,0x200
87f05c00:	afbf0014 	sw	ra,20(sp)
87f05c04:	03a0f021 	move	s8,sp
87f05c08:	00652821 	addu	a1,v1,a1
87f05c0c:	34840218 	ori	a0,a0,0x218
87f05c10:	7ca2300a 	lwx	a2,v0(a1)
87f05c14:	ac460000 	sw	a2,0(v0)
87f05c18:	24420004 	addiu	v0,v0,4
87f05c1c:	1444fffc 	bne	v0,a0,87f05c10 <BL_PostHandle+0x30>
87f05c20:	00000000 	nop
87f05c24:	3c044f7f 	lui	a0,0x4f7f
87f05c28:	3484ffe8 	ori	a0,a0,0xffe8
87f05c2c:	00641821 	addu	v1,v1,a0
87f05c30:	3c04b080 	lui	a0,0xb080
87f05c34:	34840230 	ori	a0,a0,0x230
87f05c38:	7c62280a 	lwx	a1,v0(v1)
87f05c3c:	ac450000 	sw	a1,0(v0)
87f05c40:	24420004 	addiu	v0,v0,4
87f05c44:	1444fffc 	bne	v0,a0,87f05c38 <BL_PostHandle+0x58>
87f05c48:	00000000 	nop
87f05c4c:	3c028ff0 	lui	v0,0x8ff0
87f05c50:	24424110 	addiu	v0,v0,16656
87f05c54:	0040f809 	jalr	v0
87f05c58:	00000000 	nop
87f05c5c:	3c028ff0 	lui	v0,0x8ff0
87f05c60:	244240b4 	addiu	v0,v0,16564
87f05c64:	0040f809 	jalr	v0
87f05c68:	00000000 	nop
87f05c6c:	03c0e821 	move	sp,s8
87f05c70:	8fdf0014 	lw	ra,20(s8)
87f05c74:	8fbe0010 	lw	s8,16(sp)
87f05c78:	03e00008 	jr	ra
87f05c7c:	27bd0018 	addiu	sp,sp,24

Disassembly of section .text.fat_getclusterstatus:

87f05c80 <fat_getclusterstatus>:
87f05c80:	27bdfff8 	addiu	sp,sp,-8
87f05c84:	3c0287f1 	lui	v0,0x87f1
87f05c88:	24428f70 	addiu	v0,v0,-28816
87f05c8c:	afbe0004 	sw	s8,4(sp)
87f05c90:	8c430044 	lw	v1,68(v0)
87f05c94:	24050001 	li	a1,1
87f05c98:	1065000e 	beq	v1,a1,87f05cd4 <fat_getclusterstatus+0x54>
87f05c9c:	03a0f021 	move	s8,sp
87f05ca0:	10600005 	beqz	v1,87f05cb8 <fat_getclusterstatus+0x38>
87f05ca4:	24060002 	li	a2,2
87f05ca8:	5466002d 	bnel	v1,a2,87f05d60 <fat_getclusterstatus+0xe0>
87f05cac:	2402fff6 	li	v0,-10
87f05cb0:	09fc1742 	j	87f05d08 <fat_getclusterstatus+0x88>
87f05cb4:	00000000 	nop
87f05cb8:	10800021 	beqz	a0,87f05d40 <fat_getclusterstatus+0xc0>
87f05cbc:	2483f008 	addiu	v1,a0,-4088
87f05cc0:	2c630008 	sltiu	v1,v1,8
87f05cc4:	14600020 	bnez	v1,87f05d48 <fat_getclusterstatus+0xc8>
87f05cc8:	24030ff7 	li	v1,4087
87f05ccc:	09fc173c 	j	87f05cf0 <fat_getclusterstatus+0x70>
87f05cd0:	00000000 	nop
87f05cd4:	1080001a 	beqz	a0,87f05d40 <fat_getclusterstatus+0xc0>
87f05cd8:	3c03ffff 	lui	v1,0xffff
87f05cdc:	34630008 	ori	v1,v1,0x8
87f05ce0:	00831821 	addu	v1,a0,v1
87f05ce4:	2c630008 	sltiu	v1,v1,8
87f05ce8:	14600017 	bnez	v1,87f05d48 <fat_getclusterstatus+0xc8>
87f05cec:	3403fff7 	li	v1,0xfff7
87f05cf0:	10830017 	beq	a0,v1,87f05d50 <fat_getclusterstatus+0xd0>
87f05cf4:	2c830002 	sltiu	v1,a0,2
87f05cf8:	5060000c 	beqzl	v1,87f05d2c <fat_getclusterstatus+0xac>
87f05cfc:	8c420038 	lw	v0,56(v0)
87f05d00:	09fc1758 	j	87f05d60 <fat_getclusterstatus+0xe0>
87f05d04:	2402fff6 	li	v0,-10
87f05d08:	1080000d 	beqz	a0,87f05d40 <fat_getclusterstatus+0xc0>
87f05d0c:	2c83fff8 	sltiu	v1,a0,-8
87f05d10:	1060000d 	beqz	v1,87f05d48 <fat_getclusterstatus+0xc8>
87f05d14:	2403fff7 	li	v1,-9
87f05d18:	50830011 	beql	a0,v1,87f05d60 <fat_getclusterstatus+0xe0>
87f05d1c:	2402fff7 	li	v0,-9
87f05d20:	5085000f 	beql	a0,a1,87f05d60 <fat_getclusterstatus+0xe0>
87f05d24:	2402fff6 	li	v0,-10
87f05d28:	8c420038 	lw	v0,56(v0)
87f05d2c:	0044202b 	sltu	a0,v0,a0
87f05d30:	5480000b 	bnezl	a0,87f05d60 <fat_getclusterstatus+0xe0>
87f05d34:	2402fff6 	li	v0,-10
87f05d38:	09fc1756 	j	87f05d58 <fat_getclusterstatus+0xd8>
87f05d3c:	24020002 	li	v0,2
87f05d40:	09fc1758 	j	87f05d60 <fat_getclusterstatus+0xe0>
87f05d44:	00001021 	move	v0,zero
87f05d48:	09fc1758 	j	87f05d60 <fat_getclusterstatus+0xe0>
87f05d4c:	2402fff8 	li	v0,-8
87f05d50:	09fc1758 	j	87f05d60 <fat_getclusterstatus+0xe0>
87f05d54:	2402fff7 	li	v0,-9
87f05d58:	09fc1759 	j	87f05d64 <fat_getclusterstatus+0xe4>
87f05d5c:	03c0e821 	move	sp,s8
87f05d60:	03c0e821 	move	sp,s8
87f05d64:	8fbe0004 	lw	s8,4(sp)
87f05d68:	03e00008 	jr	ra
87f05d6c:	27bd0008 	addiu	sp,sp,8

Disassembly of section .text.fat_getnextcluster:

87f05d70 <fat_getnextcluster>:
87f05d70:	27bdffe0 	addiu	sp,sp,-32
87f05d74:	3c0287f1 	lui	v0,0x87f1
87f05d78:	24428f70 	addiu	v0,v0,-28816
87f05d7c:	afbe0018 	sw	s8,24(sp)
87f05d80:	afb00014 	sw	s0,20(sp)
87f05d84:	afbf001c 	sw	ra,28(sp)
87f05d88:	8c430044 	lw	v1,68(v0)
87f05d8c:	00808021 	move	s0,a0
87f05d90:	24040001 	li	a0,1
87f05d94:	10640019 	beq	v1,a0,87f05dfc <fat_getnextcluster+0x8c>
87f05d98:	03a0f021 	move	s8,sp
87f05d9c:	50600006 	beqzl	v1,87f05db8 <fat_getnextcluster+0x48>
87f05da0:	00101842 	srl	v1,s0,0x1
87f05da4:	24040002 	li	a0,2
87f05da8:	54640043 	bnel	v1,a0,87f05eb8 <fat_getnextcluster+0x148>
87f05dac:	00001021 	move	v0,zero
87f05db0:	09fc1784 	j	87f05e10 <fat_getnextcluster+0xa0>
87f05db4:	3c0387f1 	lui	v1,0x87f1
87f05db8:	00701821 	addu	v1,v1,s0
87f05dbc:	32100001 	andi	s0,s0,0x1
87f05dc0:	12000007 	beqz	s0,87f05de0 <fat_getnextcluster+0x70>
87f05dc4:	8c420034 	lw	v0,52(v0)
87f05dc8:	00431821 	addu	v1,v0,v1
87f05dcc:	90640000 	lbu	a0,0(v1)
87f05dd0:	90620001 	lbu	v0,1(v1)
87f05dd4:	00042102 	srl	a0,a0,0x4
87f05dd8:	09fc177d 	j	87f05df4 <fat_getnextcluster+0x84>
87f05ddc:	00021100 	sll	v0,v0,0x4
87f05de0:	00431821 	addu	v1,v0,v1
87f05de4:	90620001 	lbu	v0,1(v1)
87f05de8:	90640000 	lbu	a0,0(v1)
87f05dec:	3042000f 	andi	v0,v0,0xf
87f05df0:	00021200 	sll	v0,v0,0x8
87f05df4:	09fc17ae 	j	87f05eb8 <fat_getnextcluster+0x148>
87f05df8:	00441021 	addu	v0,v0,a0
87f05dfc:	8c420034 	lw	v0,52(v0)
87f05e00:	00108040 	sll	s0,s0,0x1
87f05e04:	02028021 	addu	s0,s0,v0
87f05e08:	09fc17ae 	j	87f05eb8 <fat_getnextcluster+0x148>
87f05e0c:	96020000 	lhu	v0,0(s0)
87f05e10:	8c440048 	lw	a0,72(v0)
87f05e14:	8c638f64 	lw	v1,-28828(v1)
87f05e18:	000420c0 	sll	a0,a0,0x3
87f05e1c:	00042082 	srl	a0,a0,0x2
87f05e20:	24620001 	addiu	v0,v1,1
87f05e24:	70821002 	mul	v0,a0,v0
87f05e28:	0202102b 	sltu	v0,s0,v0
87f05e2c:	10400004 	beqz	v0,87f05e40 <fat_getnextcluster+0xd0>
87f05e30:	70831802 	mul	v1,a0,v1
87f05e34:	0203182b 	sltu	v1,s0,v1
87f05e38:	10600012 	beqz	v1,87f05e84 <fat_getnextcluster+0x114>
87f05e3c:	3c0387f1 	lui	v1,0x87f1
87f05e40:	0204001b 	divu	zero,s0,a0
87f05e44:	008001f4 	teq	a0,zero,0x7
87f05e48:	3c0387f1 	lui	v1,0x87f1
87f05e4c:	24638f70 	addiu	v1,v1,-28816
87f05e50:	3c0287f1 	lui	v0,0x87f1
87f05e54:	90650012 	lbu	a1,18(v1)
87f05e58:	8c660040 	lw	a2,64(v1)
87f05e5c:	000528c0 	sll	a1,a1,0x3
87f05e60:	00002012 	mflo	a0
87f05e64:	70a43802 	mul	a3,a1,a0
87f05e68:	ac448f64 	sw	a0,-28828(v0)
87f05e6c:	8c62005c 	lw	v0,92(v1)
87f05e70:	00e62021 	addu	a0,a3,a2
87f05e74:	0040f809 	jalr	v0
87f05e78:	8c660034 	lw	a2,52(v1)
87f05e7c:	1040000d 	beqz	v0,87f05eb4 <fat_getnextcluster+0x144>
87f05e80:	3c0387f1 	lui	v1,0x87f1
87f05e84:	24638f70 	addiu	v1,v1,-28816
87f05e88:	3c0287f1 	lui	v0,0x87f1
87f05e8c:	8c448f64 	lw	a0,-28828(v0)
87f05e90:	8c620048 	lw	v0,72(v1)
87f05e94:	8c630034 	lw	v1,52(v1)
87f05e98:	70821002 	mul	v0,a0,v0
87f05e9c:	000210c0 	sll	v0,v0,0x3
87f05ea0:	00021082 	srl	v0,v0,0x2
87f05ea4:	02021023 	subu	v0,s0,v0
87f05ea8:	00021080 	sll	v0,v0,0x2
87f05eac:	09fc17ae 	j	87f05eb8 <fat_getnextcluster+0x148>
87f05eb0:	7c43100a 	lwx	v0,v1(v0)
87f05eb4:	00001021 	move	v0,zero
87f05eb8:	03c0e821 	move	sp,s8
87f05ebc:	8fbf001c 	lw	ra,28(sp)
87f05ec0:	8fbe0018 	lw	s8,24(sp)
87f05ec4:	8fb00014 	lw	s0,20(sp)
87f05ec8:	03e00008 	jr	ra
87f05ecc:	27bd0020 	addiu	sp,sp,32

Disassembly of section .text.fat_getmaxclusternumber:

87f05ed0 <fat_getmaxclusternumber>:
87f05ed0:	27bdfff8 	addiu	sp,sp,-8
87f05ed4:	24030001 	li	v1,1
87f05ed8:	afbe0004 	sw	s8,4(sp)
87f05edc:	00041042 	srl	v0,a0,0x1
87f05ee0:	10a3000c 	beq	a1,v1,87f05f14 <fat_getmaxclusternumber+0x44>
87f05ee4:	03a0f021 	move	s8,sp
87f05ee8:	50a00006 	beqzl	a1,87f05f04 <fat_getmaxclusternumber+0x34>
87f05eec:	24020003 	li	v0,3
87f05ef0:	00042082 	srl	a0,a0,0x2
87f05ef4:	38a50002 	xori	a1,a1,0x2
87f05ef8:	00001021 	move	v0,zero
87f05efc:	09fc17c5 	j	87f05f14 <fat_getmaxclusternumber+0x44>
87f05f00:	0085100a 	movz	v0,a0,a1
87f05f04:	00042040 	sll	a0,a0,0x1
87f05f08:	0082001b 	divu	zero,a0,v0
87f05f0c:	004001f4 	teq	v0,zero,0x7
87f05f10:	00001012 	mflo	v0
87f05f14:	03c0e821 	move	sp,s8
87f05f18:	8fbe0004 	lw	s8,4(sp)
87f05f1c:	03e00008 	jr	ra
87f05f20:	27bd0008 	addiu	sp,sp,8

Disassembly of section .text.fat_getfirstdir_entry:

87f05f24 <fat_getfirstdir_entry>:
87f05f24:	27bdfff8 	addiu	sp,sp,-8
87f05f28:	00801021 	move	v0,a0
87f05f2c:	afbe0004 	sw	s8,4(sp)
87f05f30:	9084000b 	lbu	a0,11(a0)
87f05f34:	24030008 	li	v1,8
87f05f38:	03a0f021 	move	s8,sp
87f05f3c:	10830003 	beq	a0,v1,87f05f4c <fat_getfirstdir_entry+0x28>
87f05f40:	2405000f 	li	a1,15
87f05f44:	09fc17e3 	j	87f05f8c <fat_getfirstdir_entry+0x68>
87f05f48:	90430000 	lbu	v1,0(v0)
87f05f4c:	9043000b 	lbu	v1,11(v0)
87f05f50:	5065fffe 	beql	v1,a1,87f05f4c <fat_getfirstdir_entry+0x28>
87f05f54:	24420020 	addiu	v0,v0,32
87f05f58:	24430040 	addiu	v1,v0,64
87f05f5c:	24060008 	li	a2,8
87f05f60:	09fc17db 	j	87f05f6c <fat_getfirstdir_entry+0x48>
87f05f64:	240500e5 	li	a1,229
87f05f68:	24630020 	addiu	v1,v1,32
87f05f6c:	9064ffeb 	lbu	a0,-21(v1)
87f05f70:	1086fffd 	beq	a0,a2,87f05f68 <fat_getfirstdir_entry+0x44>
87f05f74:	2462ffe0 	addiu	v0,v1,-32
87f05f78:	9064ffe0 	lbu	a0,-32(v1)
87f05f7c:	5485001c 	bnel	a0,a1,87f05ff0 <fat_getfirstdir_entry+0xcc>
87f05f80:	240300ff 	li	v1,255
87f05f84:	09fc17db 	j	87f05f6c <fat_getfirstdir_entry+0x48>
87f05f88:	24630020 	addiu	v1,v1,32
87f05f8c:	240400e5 	li	a0,229
87f05f90:	10640007 	beq	v1,a0,87f05fb0 <fat_getfirstdir_entry+0x8c>
87f05f94:	240400ff 	li	a0,255
87f05f98:	5064001a 	beql	v1,a0,87f06004 <fat_getfirstdir_entry+0xe0>
87f05f9c:	00001021 	move	v0,zero
87f05fa0:	50600018 	beqzl	v1,87f06004 <fat_getfirstdir_entry+0xe0>
87f05fa4:	00001021 	move	v0,zero
87f05fa8:	09fc1802 	j	87f06008 <fat_getfirstdir_entry+0xe4>
87f05fac:	03c0e821 	move	sp,s8
87f05fb0:	2403000f 	li	v1,15
87f05fb4:	9044000b 	lbu	a0,11(v0)
87f05fb8:	5083fffe 	beql	a0,v1,87f05fb4 <fat_getfirstdir_entry+0x90>
87f05fbc:	24420020 	addiu	v0,v0,32
87f05fc0:	24430040 	addiu	v1,v0,64
87f05fc4:	24060008 	li	a2,8
87f05fc8:	09fc17f5 	j	87f05fd4 <fat_getfirstdir_entry+0xb0>
87f05fcc:	240500e5 	li	a1,229
87f05fd0:	24630020 	addiu	v1,v1,32
87f05fd4:	9064ffeb 	lbu	a0,-21(v1)
87f05fd8:	1086fffd 	beq	a0,a2,87f05fd0 <fat_getfirstdir_entry+0xac>
87f05fdc:	2462ffe0 	addiu	v0,v1,-32
87f05fe0:	9064ffe0 	lbu	a0,-32(v1)
87f05fe4:	1085fffb 	beq	a0,a1,87f05fd4 <fat_getfirstdir_entry+0xb0>
87f05fe8:	24630020 	addiu	v1,v1,32
87f05fec:	240300ff 	li	v1,255
87f05ff0:	50830004 	beql	a0,v1,87f06004 <fat_getfirstdir_entry+0xe0>
87f05ff4:	00001021 	move	v0,zero
87f05ff8:	54800003 	bnezl	a0,87f06008 <fat_getfirstdir_entry+0xe4>
87f05ffc:	03c0e821 	move	sp,s8
87f06000:	00001021 	move	v0,zero
87f06004:	03c0e821 	move	sp,s8
87f06008:	8fbe0004 	lw	s8,4(sp)
87f0600c:	03e00008 	jr	ra
87f06010:	27bd0008 	addiu	sp,sp,8

Disassembly of section .text.fat_regfilesystem:

87f06014 <fat_regfilesystem>:
87f06014:	27bdfff8 	addiu	sp,sp,-8
87f06018:	3c0287f1 	lui	v0,0x87f1
87f0601c:	afbe0004 	sw	s8,4(sp)
87f06020:	03a0f021 	move	s8,sp
87f06024:	03c0e821 	move	sp,s8
87f06028:	ac448fcc 	sw	a0,-28724(v0)
87f0602c:	8fbe0004 	lw	s8,4(sp)
87f06030:	03e00008 	jr	ra
87f06034:	27bd0008 	addiu	sp,sp,8

Disassembly of section .text.fat_close_rootfile:

87f06038 <fat_close_rootfile>:
87f06038:	27bdfff8 	addiu	sp,sp,-8
87f0603c:	3c0287f1 	lui	v0,0x87f1
87f06040:	afbe0004 	sw	s8,4(sp)
87f06044:	03a0f021 	move	s8,sp
87f06048:	03c0e821 	move	sp,s8
87f0604c:	ac408fd0 	sw	zero,-28720(v0)
87f06050:	24428fd0 	addiu	v0,v0,-28720
87f06054:	8fbe0004 	lw	s8,4(sp)
87f06058:	ac400004 	sw	zero,4(v0)
87f0605c:	ac400008 	sw	zero,8(v0)
87f06060:	ac40000c 	sw	zero,12(v0)
87f06064:	03e00008 	jr	ra
87f06068:	27bd0008 	addiu	sp,sp,8

Disassembly of section .text.fat_read_rootfile:

87f0606c <fat_read_rootfile>:
87f0606c:	27bdffc8 	addiu	sp,sp,-56
87f06070:	3c0287f1 	lui	v0,0x87f1
87f06074:	3c0387f1 	lui	v1,0x87f1
87f06078:	24428f70 	addiu	v0,v0,-28816
87f0607c:	afbe0030 	sw	s8,48(sp)
87f06080:	afb20018 	sw	s2,24(sp)
87f06084:	afb00010 	sw	s0,16(sp)
87f06088:	afbf0034 	sw	ra,52(sp)
87f0608c:	afb7002c 	sw	s7,44(sp)
87f06090:	afb60028 	sw	s6,40(sp)
87f06094:	afb50024 	sw	s5,36(sp)
87f06098:	afb40020 	sw	s4,32(sp)
87f0609c:	afb3001c 	sw	s3,28(sp)
87f060a0:	afb10014 	sw	s1,20(sp)
87f060a4:	8c638fd0 	lw	v1,-28720(v1)
87f060a8:	8c550048 	lw	s5,72(v0)
87f060ac:	00809021 	move	s2,a0
87f060b0:	2c640002 	sltiu	a0,v1,2
87f060b4:	03a0f021 	move	s8,sp
87f060b8:	00a08021 	move	s0,a1
87f060bc:	10800003 	beqz	a0,87f060cc <fat_read_rootfile+0x60>
87f060c0:	0015aa42 	srl	s5,s5,0x9
87f060c4:	09fc1838 	j	87f060e0 <fat_read_rootfile+0x74>
87f060c8:	8c440054 	lw	a0,84(v0)
87f060cc:	90440012 	lbu	a0,18(v0)
87f060d0:	2463fffe 	addiu	v1,v1,-2
87f060d4:	70832802 	mul	a1,a0,v1
87f060d8:	8c42004c 	lw	v0,76(v0)
87f060dc:	00a22021 	addu	a0,a1,v0
87f060e0:	3c1687f1 	lui	s6,0x87f1
87f060e4:	26d68f70 	addiu	s6,s6,-28816
87f060e8:	02a02821 	move	a1,s5
87f060ec:	8ec2005c 	lw	v0,92(s6)
87f060f0:	0040f809 	jalr	v0
87f060f4:	02403021 	move	a2,s2
87f060f8:	10400034 	beqz	v0,87f061cc <fat_read_rootfile+0x160>
87f060fc:	3c1387f1 	lui	s3,0x87f1
87f06100:	8ed10048 	lw	s1,72(s6)
87f06104:	02519021 	addu	s2,s2,s1
87f06108:	26738fd0 	addiu	s3,s3,-28720
87f0610c:	09fc1846 	j	87f06118 <fat_read_rootfile+0xac>
87f06110:	24170002 	li	s7,2
87f06114:	02348821 	addu	s1,s1,s4
87f06118:	12000003 	beqz	s0,87f06128 <fat_read_rootfile+0xbc>
87f0611c:	0230102b 	sltu	v0,s1,s0
87f06120:	5040002c 	beqzl	v0,87f061d4 <fat_read_rootfile+0x168>
87f06124:	03c0e821 	move	sp,s8
87f06128:	0dfc175c 	jal	87f05d70 <fat_getnextcluster>
87f0612c:	8e64000c 	lw	a0,12(s3)
87f06130:	00402021 	move	a0,v0
87f06134:	0dfc1720 	jal	87f05c80 <fat_getclusterstatus>
87f06138:	0040a021 	move	s4,v0
87f0613c:	14570019 	bne	v0,s7,87f061a4 <fat_read_rootfile+0x138>
87f06140:	2e820002 	sltiu	v0,s4,2
87f06144:	10400003 	beqz	v0,87f06154 <fat_read_rootfile+0xe8>
87f06148:	ae74000c 	sw	s4,12(s3)
87f0614c:	09fc185a 	j	87f06168 <fat_read_rootfile+0xfc>
87f06150:	8ec40054 	lw	a0,84(s6)
87f06154:	92c30012 	lbu	v1,18(s6)
87f06158:	2694fffe 	addiu	s4,s4,-2
87f0615c:	72832802 	mul	a1,s4,v1
87f06160:	8ec2004c 	lw	v0,76(s6)
87f06164:	00a22021 	addu	a0,a1,v0
87f06168:	8ec3005c 	lw	v1,92(s6)
87f0616c:	02a02821 	move	a1,s5
87f06170:	0060f809 	jalr	v1
87f06174:	02403021 	move	a2,s2
87f06178:	10400014 	beqz	v0,87f061cc <fat_read_rootfile+0x160>
87f0617c:	3c0487f1 	lui	a0,0x87f1
87f06180:	24848ee0 	addiu	a0,a0,-28960
87f06184:	0dfc1b4a 	jal	87f06d28 <fLib_PutSerialStr>
87f06188:	8ed40048 	lw	s4,72(s6)
87f0618c:	3c0387f1 	lui	v1,0x87f1
87f06190:	8c628f60 	lw	v0,-28832(v1)
87f06194:	14400009 	bnez	v0,87f061bc <fat_read_rootfile+0x150>
87f06198:	00000000 	nop
87f0619c:	09fc1845 	j	87f06114 <fat_read_rootfile+0xa8>
87f061a0:	02549021 	addu	s2,s2,s4
87f061a4:	8e700008 	lw	s0,8(s3)
87f061a8:	0230882b 	sltu	s1,s1,s0
87f061ac:	56200008 	bnezl	s1,87f061d0 <fat_read_rootfile+0x164>
87f061b0:	00008021 	move	s0,zero
87f061b4:	09fc1875 	j	87f061d4 <fat_read_rootfile+0x168>
87f061b8:	03c0e821 	move	sp,s8
87f061bc:	0040f809 	jalr	v0
87f061c0:	02549021 	addu	s2,s2,s4
87f061c4:	09fc1846 	j	87f06118 <fat_read_rootfile+0xac>
87f061c8:	02348821 	addu	s1,s1,s4
87f061cc:	00008021 	move	s0,zero
87f061d0:	03c0e821 	move	sp,s8
87f061d4:	02001021 	move	v0,s0
87f061d8:	8fbf0034 	lw	ra,52(sp)
87f061dc:	8fbe0030 	lw	s8,48(sp)
87f061e0:	8fb7002c 	lw	s7,44(sp)
87f061e4:	8fb60028 	lw	s6,40(sp)
87f061e8:	8fb50024 	lw	s5,36(sp)
87f061ec:	8fb40020 	lw	s4,32(sp)
87f061f0:	8fb3001c 	lw	s3,28(sp)
87f061f4:	8fb20018 	lw	s2,24(sp)
87f061f8:	8fb10014 	lw	s1,20(sp)
87f061fc:	8fb00010 	lw	s0,16(sp)
87f06200:	03e00008 	jr	ra
87f06204:	27bd0038 	addiu	sp,sp,56

Disassembly of section .text.fat_open_rootfile:

87f06208 <fat_open_rootfile>:
87f06208:	27bdffb8 	addiu	sp,sp,-72
87f0620c:	afbe0040 	sw	s8,64(sp)
87f06210:	afb00020 	sw	s0,32(sp)
87f06214:	afbf0044 	sw	ra,68(sp)
87f06218:	afb7003c 	sw	s7,60(sp)
87f0621c:	afb60038 	sw	s6,56(sp)
87f06220:	afb50034 	sw	s5,52(sp)
87f06224:	afb40030 	sw	s4,48(sp)
87f06228:	afb3002c 	sw	s3,44(sp)
87f0622c:	afb20028 	sw	s2,40(sp)
87f06230:	afb10024 	sw	s1,36(sp)
87f06234:	03a0f021 	move	s8,sp
87f06238:	14800004 	bnez	a0,87f0624c <fat_open_rootfile+0x44>
87f0623c:	00808021 	move	s0,a0
87f06240:	a3c00014 	sb	zero,20(s8)
87f06244:	09fc18b8 	j	87f062e0 <fat_open_rootfile+0xd8>
87f06248:	a3c00010 	sb	zero,16(s8)
87f0624c:	0dfc1ab1 	jal	87f06ac4 <strchr>
87f06250:	2405002e 	li	a1,46
87f06254:	10400010 	beqz	v0,87f06298 <fat_open_rootfile+0x90>
87f06258:	24420001 	addiu	v0,v0,1
87f0625c:	27c30011 	addiu	v1,s8,17
87f06260:	27c60014 	addiu	a2,s8,20
87f06264:	24050020 	li	a1,32
87f06268:	90440000 	lbu	a0,0(v0)
87f0626c:	54800004 	bnezl	a0,87f06280 <fat_open_rootfile+0x78>
87f06270:	a064ffff 	sb	a0,-1(v1)
87f06274:	a065ffff 	sb	a1,-1(v1)
87f06278:	09fc18a2 	j	87f06288 <fat_open_rootfile+0x80>
87f0627c:	00602021 	move	a0,v1
87f06280:	24420001 	addiu	v0,v0,1
87f06284:	00602021 	move	a0,v1
87f06288:	24630001 	addiu	v1,v1,1
87f0628c:	5466fff7 	bnel	v1,a2,87f0626c <fat_open_rootfile+0x64>
87f06290:	90440000 	lbu	a0,0(v0)
87f06294:	a0800000 	sb	zero,0(a0)
87f06298:	27c20015 	addiu	v0,s8,21
87f0629c:	27c6001d 	addiu	a2,s8,29
87f062a0:	24050020 	li	a1,32
87f062a4:	2404002e 	li	a0,46
87f062a8:	92030000 	lbu	v1,0(s0)
87f062ac:	50600004 	beqzl	v1,87f062c0 <fat_open_rootfile+0xb8>
87f062b0:	a045ffff 	sb	a1,-1(v0)
87f062b4:	54640004 	bnel	v1,a0,87f062c8 <fat_open_rootfile+0xc0>
87f062b8:	a043ffff 	sb	v1,-1(v0)
87f062bc:	a045ffff 	sb	a1,-1(v0)
87f062c0:	09fc18b4 	j	87f062d0 <fat_open_rootfile+0xc8>
87f062c4:	00401821 	move	v1,v0
87f062c8:	26100001 	addiu	s0,s0,1
87f062cc:	00401821 	move	v1,v0
87f062d0:	24420001 	addiu	v0,v0,1
87f062d4:	5446fff5 	bnel	v0,a2,87f062ac <fat_open_rootfile+0xa4>
87f062d8:	92030000 	lbu	v1,0(s0)
87f062dc:	a0600000 	sb	zero,0(v1)
87f062e0:	3c0287f1 	lui	v0,0x87f1
87f062e4:	24428f70 	addiu	v0,v0,-28816
87f062e8:	24050002 	li	a1,2
87f062ec:	8c460044 	lw	a2,68(v0)
87f062f0:	3c0387f1 	lui	v1,0x87f1
87f062f4:	94520010 	lhu	s2,16(v0)
87f062f8:	10c50004 	beq	a2,a1,87f0630c <fat_open_rootfile+0x104>
87f062fc:	3c0487f1 	lui	a0,0x87f1
87f06300:	8c638f6c 	lw	v1,-28820(v1)
87f06304:	09fc18c5 	j	87f06314 <fat_open_rootfile+0x10c>
87f06308:	8c450058 	lw	a1,88(v0)
87f0630c:	8c638f6c 	lw	v1,-28820(v1)
87f06310:	90450012 	lbu	a1,18(v0)
87f06314:	72459002 	mul	s2,s2,a1
87f06318:	8c828f68 	lw	v0,-28824(a0)
87f0631c:	00431023 	subu	v0,v0,v1
87f06320:	26440020 	addiu	a0,s2,32
87f06324:	0044102b 	sltu	v0,v0,a0
87f06328:	50400006 	beqzl	v0,87f06344 <fat_open_rootfile+0x13c>
87f0632c:	3c0287f1 	lui	v0,0x87f1
87f06330:	3c0487f1 	lui	a0,0x87f1
87f06334:	0dfc1b4a 	jal	87f06d28 <fLib_PutSerialStr>
87f06338:	24848ee4 	addiu	a0,a0,-28956
87f0633c:	09fc1950 	j	87f06540 <fat_open_rootfile+0x338>
87f06340:	00001021 	move	v0,zero
87f06344:	8c508d44 	lw	s0,-29372(v0)
87f06348:	3c0287f1 	lui	v0,0x87f1
87f0634c:	24428f70 	addiu	v0,v0,-28816
87f06350:	00708021 	addu	s0,v1,s0
87f06354:	8c510050 	lw	s1,80(v0)
87f06358:	2e230002 	sltiu	v1,s1,2
87f0635c:	50600003 	beqzl	v1,87f0636c <fat_open_rootfile+0x164>
87f06360:	90440012 	lbu	a0,18(v0)
87f06364:	09fc18df 	j	87f0637c <fat_open_rootfile+0x174>
87f06368:	8c440054 	lw	a0,84(v0)
87f0636c:	2623fffe 	addiu	v1,s1,-2
87f06370:	70833002 	mul	a2,a0,v1
87f06374:	8c42004c 	lw	v0,76(v0)
87f06378:	00c22021 	addu	a0,a2,v0
87f0637c:	3c0287f1 	lui	v0,0x87f1
87f06380:	8c428fcc 	lw	v0,-28724(v0)
87f06384:	0040f809 	jalr	v0
87f06388:	02003021 	move	a2,s0
87f0638c:	1040006b 	beqz	v0,87f0653c <fat_open_rootfile+0x334>
87f06390:	02129021 	addu	s2,s0,s2
87f06394:	00001021 	move	v0,zero
87f06398:	24030020 	li	v1,32
87f0639c:	24420001 	addiu	v0,v0,1
87f063a0:	a2400000 	sb	zero,0(s2)
87f063a4:	1443fffd 	bne	v0,v1,87f0639c <fat_open_rootfile+0x194>
87f063a8:	26520001 	addiu	s2,s2,1
87f063ac:	0dfc17c9 	jal	87f05f24 <fat_getfirstdir_entry>
87f063b0:	02002021 	move	a0,s0
87f063b4:	10400061 	beqz	v0,87f0653c <fat_open_rootfile+0x334>
87f063b8:	3c1587f1 	lui	s5,0x87f1
87f063bc:	2413000f 	li	s3,15
87f063c0:	24140008 	li	s4,8
87f063c4:	241700e5 	li	s7,229
87f063c8:	26b58f70 	addiu	s5,s5,-28816
87f063cc:	24120002 	li	s2,2
87f063d0:	93c70010 	lbu	a3,16(s8)
87f063d4:	93c60011 	lbu	a2,17(s8)
87f063d8:	93c50012 	lbu	a1,18(s8)
87f063dc:	00401821 	move	v1,v0
87f063e0:	24480008 	addiu	t0,v0,8
87f063e4:	27c40014 	addiu	a0,s8,20
87f063e8:	90890000 	lbu	t1,0(a0)
87f063ec:	906a0000 	lbu	t2,0(v1)
87f063f0:	1549001b 	bne	t2,t1,87f06460 <fat_open_rootfile+0x258>
87f063f4:	24840001 	addiu	a0,a0,1
87f063f8:	24630001 	addiu	v1,v1,1
87f063fc:	5468fffb 	bnel	v1,t0,87f063ec <fat_open_rootfile+0x1e4>
87f06400:	90890000 	lbu	t1,0(a0)
87f06404:	90640000 	lbu	a0,0(v1)
87f06408:	14870015 	bne	a0,a3,87f06460 <fat_open_rootfile+0x258>
87f0640c:	24640001 	addiu	a0,v1,1
87f06410:	90630001 	lbu	v1,1(v1)
87f06414:	54660013 	bnel	v1,a2,87f06464 <fat_open_rootfile+0x25c>
87f06418:	9043000b 	lbu	v1,11(v0)
87f0641c:	90830001 	lbu	v1,1(a0)
87f06420:	54650010 	bnel	v1,a1,87f06464 <fat_open_rootfile+0x25c>
87f06424:	9043000b 	lbu	v1,11(v0)
87f06428:	94440014 	lhu	a0,20(v0)
87f0642c:	9443001a 	lhu	v1,26(v0)
87f06430:	00042400 	sll	a0,a0,0x10
87f06434:	00832025 	or	a0,a0,v1
87f06438:	3c0387f1 	lui	v1,0x87f1
87f0643c:	ac648fd0 	sw	a0,-28720(v1)
87f06440:	9045000b 	lbu	a1,11(v0)
87f06444:	24638fd0 	addiu	v1,v1,-28720
87f06448:	ac650004 	sw	a1,4(v1)
87f0644c:	8c42001c 	lw	v0,28(v0)
87f06450:	ac64000c 	sw	a0,12(v1)
87f06454:	ac620008 	sw	v0,8(v1)
87f06458:	09fc1950 	j	87f06540 <fat_open_rootfile+0x338>
87f0645c:	24020001 	li	v0,1
87f06460:	9043000b 	lbu	v1,11(v0)
87f06464:	5073fffe 	beql	v1,s3,87f06460 <fat_open_rootfile+0x258>
87f06468:	24420020 	addiu	v0,v0,32
87f0646c:	09fc191e 	j	87f06478 <fat_open_rootfile+0x270>
87f06470:	24430040 	addiu	v1,v0,64
87f06474:	24630020 	addiu	v1,v1,32
87f06478:	9064ffeb 	lbu	a0,-21(v1)
87f0647c:	1094fffd 	beq	a0,s4,87f06474 <fat_open_rootfile+0x26c>
87f06480:	2462ffe0 	addiu	v0,v1,-32
87f06484:	9064ffe0 	lbu	a0,-32(v1)
87f06488:	1097fffb 	beq	a0,s7,87f06478 <fat_open_rootfile+0x270>
87f0648c:	24630020 	addiu	v1,v1,32
87f06490:	240300ff 	li	v1,255
87f06494:	50830006 	beql	a0,v1,87f064b0 <fat_open_rootfile+0x2a8>
87f06498:	8ea20044 	lw	v0,68(s5)
87f0649c:	50800004 	beqzl	a0,87f064b0 <fat_open_rootfile+0x2a8>
87f064a0:	8ea20044 	lw	v0,68(s5)
87f064a4:	1440ffce 	bnez	v0,87f063e0 <fat_open_rootfile+0x1d8>
87f064a8:	00401821 	move	v1,v0
87f064ac:	8ea20044 	lw	v0,68(s5)
87f064b0:	14520023 	bne	v0,s2,87f06540 <fat_open_rootfile+0x338>
87f064b4:	00001021 	move	v0,zero
87f064b8:	0dfc175c 	jal	87f05d70 <fat_getnextcluster>
87f064bc:	02202021 	move	a0,s1
87f064c0:	00402021 	move	a0,v0
87f064c4:	0dfc1720 	jal	87f05c80 <fat_getclusterstatus>
87f064c8:	00408821 	move	s1,v0
87f064cc:	1452001b 	bne	v0,s2,87f0653c <fat_open_rootfile+0x334>
87f064d0:	2e220002 	sltiu	v0,s1,2
87f064d4:	50400003 	beqzl	v0,87f064e4 <fat_open_rootfile+0x2dc>
87f064d8:	92a30012 	lbu	v1,18(s5)
87f064dc:	09fc193d 	j	87f064f4 <fat_open_rootfile+0x2ec>
87f064e0:	8ea40054 	lw	a0,84(s5)
87f064e4:	2624fffe 	addiu	a0,s1,-2
87f064e8:	70832802 	mul	a1,a0,v1
87f064ec:	8ea2004c 	lw	v0,76(s5)
87f064f0:	00a22021 	addu	a0,a1,v0
87f064f4:	92a50012 	lbu	a1,18(s5)
87f064f8:	96b60010 	lhu	s6,16(s5)
87f064fc:	8ea2005c 	lw	v0,92(s5)
87f06500:	02003021 	move	a2,s0
87f06504:	0040f809 	jalr	v0
87f06508:	72c5b002 	mul	s6,s6,a1
87f0650c:	1040000b 	beqz	v0,87f0653c <fat_open_rootfile+0x334>
87f06510:	0216b021 	addu	s6,s0,s6
87f06514:	00001021 	move	v0,zero
87f06518:	24420001 	addiu	v0,v0,1
87f0651c:	24030020 	li	v1,32
87f06520:	a2c00000 	sb	zero,0(s6)
87f06524:	1443fffc 	bne	v0,v1,87f06518 <fat_open_rootfile+0x310>
87f06528:	26d60001 	addiu	s6,s6,1
87f0652c:	0dfc17c9 	jal	87f05f24 <fat_getfirstdir_entry>
87f06530:	02002021 	move	a0,s0
87f06534:	1440ffa7 	bnez	v0,87f063d4 <fat_open_rootfile+0x1cc>
87f06538:	93c70010 	lbu	a3,16(s8)
87f0653c:	00001021 	move	v0,zero
87f06540:	03c0e821 	move	sp,s8
87f06544:	8fbf0044 	lw	ra,68(sp)
87f06548:	8fbe0040 	lw	s8,64(sp)
87f0654c:	8fb7003c 	lw	s7,60(sp)
87f06550:	8fb60038 	lw	s6,56(sp)
87f06554:	8fb50034 	lw	s5,52(sp)
87f06558:	8fb40030 	lw	s4,48(sp)
87f0655c:	8fb3002c 	lw	s3,44(sp)
87f06560:	8fb20028 	lw	s2,40(sp)
87f06564:	8fb10024 	lw	s1,36(sp)
87f06568:	8fb00020 	lw	s0,32(sp)
87f0656c:	03e00008 	jr	ra
87f06570:	27bd0048 	addiu	sp,sp,72

Disassembly of section .text.fat_initFAT:

87f06574 <fat_initFAT>:
87f06574:	3c0287f1 	lui	v0,0x87f1
87f06578:	27bdfdd8 	addiu	sp,sp,-552
87f0657c:	ac448d44 	sw	a0,-29372(v0)
87f06580:	3c0287f1 	lui	v0,0x87f1
87f06584:	afbe0220 	sw	s8,544(sp)
87f06588:	ac458f68 	sw	a1,-28824(v0)
87f0658c:	3c0287f1 	lui	v0,0x87f1
87f06590:	24428f70 	addiu	v0,v0,-28816
87f06594:	afb2021c 	sw	s2,540(sp)
87f06598:	afbf0224 	sw	ra,548(sp)
87f0659c:	afb10218 	sw	s1,536(sp)
87f065a0:	afb00214 	sw	s0,532(sp)
87f065a4:	03a0f021 	move	s8,sp
87f065a8:	ac400034 	sw	zero,52(v0)
87f065ac:	ac40003c 	sw	zero,60(v0)
87f065b0:	ac400040 	sw	zero,64(v0)
87f065b4:	ac400050 	sw	zero,80(v0)
87f065b8:	ac400054 	sw	zero,84(v0)
87f065bc:	ac400058 	sw	zero,88(v0)
87f065c0:	8c42005c 	lw	v0,92(v0)
87f065c4:	00a09021 	move	s2,a1
87f065c8:	00002021 	move	a0,zero
87f065cc:	24050001 	li	a1,1
87f065d0:	0040f809 	jalr	v0
87f065d4:	27c60010 	addiu	a2,s8,16
87f065d8:	104000d5 	beqz	v0,87f06930 <fat_initFAT+0x3bc>
87f065dc:	93c3020e 	lbu	v1,526(s8)
87f065e0:	24020055 	li	v0,85
87f065e4:	10620004 	beq	v1,v0,87f065f8 <fat_initFAT+0x84>
87f065e8:	93c3020f 	lbu	v1,527(s8)
87f065ec:	240200aa 	li	v0,170
87f065f0:	146200d2 	bne	v1,v0,87f0693c <fat_initFAT+0x3c8>
87f065f4:	00001021 	move	v0,zero
87f065f8:	93c201ce 	lbu	v0,462(s8)
87f065fc:	10400003 	beqz	v0,87f0660c <fat_initFAT+0x98>
87f06600:	24030080 	li	v1,128
87f06604:	54430008 	bnel	v0,v1,87f06628 <fat_initFAT+0xb4>
87f06608:	3c0287f1 	lui	v0,0x87f1
87f0660c:	3c0487f1 	lui	a0,0x87f1
87f06610:	24848f70 	addiu	a0,a0,-28816
87f06614:	27c501ce 	addiu	a1,s8,462
87f06618:	0dfc1a8b 	jal	87f06a2c <memcpy>
87f0661c:	24060010 	li	a2,16
87f06620:	09fc198c 	j	87f06630 <fat_initFAT+0xbc>
87f06624:	3c0287f1 	lui	v0,0x87f1
87f06628:	ac408f78 	sw	zero,-28808(v0)
87f0662c:	3c0287f1 	lui	v0,0x87f1
87f06630:	24428f70 	addiu	v0,v0,-28816
87f06634:	24050001 	li	a1,1
87f06638:	8c510008 	lw	s1,8(v0)
87f0663c:	8c42005c 	lw	v0,92(v0)
87f06640:	02202021 	move	a0,s1
87f06644:	0040f809 	jalr	v0
87f06648:	27c60010 	addiu	a2,s8,16
87f0664c:	104000b8 	beqz	v0,87f06930 <fat_initFAT+0x3bc>
87f06650:	93c3020e 	lbu	v1,526(s8)
87f06654:	24020055 	li	v0,85
87f06658:	10620004 	beq	v1,v0,87f0666c <fat_initFAT+0xf8>
87f0665c:	93c3020f 	lbu	v1,527(s8)
87f06660:	240200aa 	li	v0,170
87f06664:	146200b5 	bne	v1,v0,87f0693c <fat_initFAT+0x3c8>
87f06668:	00001021 	move	v0,zero
87f0666c:	3c1087f1 	lui	s0,0x87f1
87f06670:	26108f70 	addiu	s0,s0,-28816
87f06674:	3c0487f1 	lui	a0,0x87f1
87f06678:	ae11003c 	sw	s1,60(s0)
87f0667c:	24848f80 	addiu	a0,a0,-28800
87f06680:	27c5001b 	addiu	a1,s8,27
87f06684:	0dfc1a8b 	jal	87f06a2c <memcpy>
87f06688:	24060002 	li	a2,2
87f0668c:	93c2001d 	lbu	v0,29(s8)
87f06690:	3c0487f1 	lui	a0,0x87f1
87f06694:	24848f84 	addiu	a0,a0,-28796
87f06698:	27c5001e 	addiu	a1,s8,30
87f0669c:	24060002 	li	a2,2
87f066a0:	0dfc1a8b 	jal	87f06a2c <memcpy>
87f066a4:	a2020012 	sb	v0,18(s0)
87f066a8:	93c20020 	lbu	v0,32(s8)
87f066ac:	3c0487f1 	lui	a0,0x87f1
87f066b0:	24848f88 	addiu	a0,a0,-28792
87f066b4:	27c50021 	addiu	a1,s8,33
87f066b8:	24060002 	li	a2,2
87f066bc:	0dfc1a8b 	jal	87f06a2c <memcpy>
87f066c0:	a2020016 	sb	v0,22(s0)
87f066c4:	3c0487f1 	lui	a0,0x87f1
87f066c8:	24848f8a 	addiu	a0,a0,-28790
87f066cc:	27c50026 	addiu	a1,s8,38
87f066d0:	0dfc1a8b 	jal	87f06a2c <memcpy>
87f066d4:	24060002 	li	a2,2
87f066d8:	3c0487f1 	lui	a0,0x87f1
87f066dc:	24848f8c 	addiu	a0,a0,-28788
87f066e0:	27c50028 	addiu	a1,s8,40
87f066e4:	0dfc1a8b 	jal	87f06a2c <memcpy>
87f066e8:	24060002 	li	a2,2
87f066ec:	3c0487f1 	lui	a0,0x87f1
87f066f0:	24848f90 	addiu	a0,a0,-28784
87f066f4:	27c5002c 	addiu	a1,s8,44
87f066f8:	24060004 	li	a2,4
87f066fc:	0dfc1a8b 	jal	87f06a2c <memcpy>
87f06700:	3c1187f1 	lui	s1,0x87f1
87f06704:	26248f94 	addiu	a0,s1,-28780
87f06708:	27c50046 	addiu	a1,s8,70
87f0670c:	0dfc1a8b 	jal	87f06a2c <memcpy>
87f06710:	24060008 	li	a2,8
87f06714:	3c0587f1 	lui	a1,0x87f1
87f06718:	26248f94 	addiu	a0,s1,-28780
87f0671c:	24a58eec 	addiu	a1,a1,-28948
87f06720:	0dfc1a9c 	jal	87f06a70 <strncmp>
87f06724:	24060005 	li	a2,5
87f06728:	10400022 	beqz	v0,87f067b4 <fat_initFAT+0x240>
87f0672c:	24020001 	li	v0,1
87f06730:	3c0587f1 	lui	a1,0x87f1
87f06734:	26248f94 	addiu	a0,s1,-28780
87f06738:	24a58ef4 	addiu	a1,a1,-28940
87f0673c:	0dfc1a9c 	jal	87f06a70 <strncmp>
87f06740:	24060005 	li	a2,5
87f06744:	54400003 	bnezl	v0,87f06754 <fat_initFAT+0x1e0>
87f06748:	9602001a 	lhu	v0,26(s0)
87f0674c:	09fc19ee 	j	87f067b8 <fat_initFAT+0x244>
87f06750:	ae000044 	sw	zero,68(s0)
87f06754:	14400079 	bnez	v0,87f0693c <fat_initFAT+0x3c8>
87f06758:	00001021 	move	v0,zero
87f0675c:	26248f94 	addiu	a0,s1,-28780
87f06760:	27c50062 	addiu	a1,s8,98
87f06764:	0dfc1a8b 	jal	87f06a2c <memcpy>
87f06768:	24060008 	li	a2,8
87f0676c:	3c0587f1 	lui	a1,0x87f1
87f06770:	26248f94 	addiu	a0,s1,-28780
87f06774:	24a58efc 	addiu	a1,a1,-28932
87f06778:	0dfc1a9c 	jal	87f06a70 <strncmp>
87f0677c:	24060005 	li	a2,5
87f06780:	1440006e 	bnez	v0,87f0693c <fat_initFAT+0x3c8>
87f06784:	00001021 	move	v0,zero
87f06788:	3c0487f1 	lui	a0,0x87f1
87f0678c:	24848f9c 	addiu	a0,a0,-28772
87f06790:	27c50034 	addiu	a1,s8,52
87f06794:	0dfc1a8b 	jal	87f06a2c <memcpy>
87f06798:	24060004 	li	a2,4
87f0679c:	3c0487f1 	lui	a0,0x87f1
87f067a0:	24848fa0 	addiu	a0,a0,-28768
87f067a4:	27c5003c 	addiu	a1,s8,60
87f067a8:	0dfc1a8b 	jal	87f06a2c <memcpy>
87f067ac:	24060004 	li	a2,4
87f067b0:	24020002 	li	v0,2
87f067b4:	ae020044 	sw	v0,68(s0)
87f067b8:	3c1187f1 	lui	s1,0x87f1
87f067bc:	26318f70 	addiu	s1,s1,-28816
87f067c0:	92250012 	lbu	a1,18(s1)
87f067c4:	96230010 	lhu	v1,16(s1)
87f067c8:	96260014 	lhu	a2,20(s1)
87f067cc:	70a31002 	mul	v0,a1,v1
87f067d0:	8e240008 	lw	a0,8(s1)
87f067d4:	8e300044 	lw	s0,68(s1)
87f067d8:	00c42021 	addu	a0,a2,a0
87f067dc:	24060002 	li	a2,2
87f067e0:	ae220048 	sw	v0,72(s1)
87f067e4:	12060024 	beq	s0,a2,87f06878 <fat_initFAT+0x304>
87f067e8:	ae240040 	sw	a0,64(s1)
87f067ec:	9625001a 	lhu	a1,26(s1)
87f067f0:	70a31002 	mul	v0,a1,v1
87f067f4:	0242902b 	sltu	s2,s2,v0
87f067f8:	56400050 	bnezl	s2,87f0693c <fat_initFAT+0x3c8>
87f067fc:	00001021 	move	v0,zero
87f06800:	3c0387f1 	lui	v1,0x87f1
87f06804:	8c668d44 	lw	a2,-29372(v1)
87f06808:	3c0387f1 	lui	v1,0x87f1
87f0680c:	ae260034 	sw	a2,52(s1)
87f06810:	ac628f6c 	sw	v0,-28820(v1)
87f06814:	8e22005c 	lw	v0,92(s1)
87f06818:	0040f809 	jalr	v0
87f0681c:	00000000 	nop
87f06820:	10400046 	beqz	v0,87f0693c <fat_initFAT+0x3c8>
87f06824:	00001021 	move	v0,zero
87f06828:	96300010 	lhu	s0,16(s1)
87f0682c:	9632001a 	lhu	s2,26(s1)
87f06830:	8e250044 	lw	a1,68(s1)
87f06834:	0dfc17b4 	jal	87f05ed0 <fat_getmaxclusternumber>
87f06838:	72122002 	mul	a0,s0,s2
87f0683c:	92230016 	lbu	v1,22(s1)
87f06840:	ae220038 	sw	v0,56(s1)
87f06844:	72432002 	mul	a0,s2,v1
87f06848:	8e220040 	lw	v0,64(s1)
87f0684c:	ae200050 	sw	zero,80(s1)
87f06850:	00829021 	addu	s2,a0,v0
87f06854:	96220018 	lhu	v0,24(s1)
87f06858:	ae320054 	sw	s2,84(s1)
87f0685c:	00021140 	sll	v0,v0,0x5
87f06860:	0050001a 	div	zero,v0,s0
87f06864:	020001f4 	teq	s0,zero,0x7
87f06868:	00008012 	mflo	s0
87f0686c:	ae300058 	sw	s0,88(s1)
87f06870:	09fc1a39 	j	87f068e4 <fat_initFAT+0x370>
87f06874:	02129021 	addu	s2,s0,s2
87f06878:	000210c0 	sll	v0,v0,0x3
87f0687c:	0242902b 	sltu	s2,s2,v0
87f06880:	5640002e 	bnezl	s2,87f0693c <fat_initFAT+0x3c8>
87f06884:	00001021 	move	v0,zero
87f06888:	3c0387f1 	lui	v1,0x87f1
87f0688c:	8c668d44 	lw	a2,-29372(v1)
87f06890:	3c0387f1 	lui	v1,0x87f1
87f06894:	ae260034 	sw	a2,52(s1)
87f06898:	ac628f6c 	sw	v0,-28820(v1)
87f0689c:	8e22005c 	lw	v0,92(s1)
87f068a0:	0040f809 	jalr	v0
87f068a4:	000528c0 	sll	a1,a1,0x3
87f068a8:	10400024 	beqz	v0,87f0693c <fat_initFAT+0x3c8>
87f068ac:	00001021 	move	v0,zero
87f068b0:	8e32002c 	lw	s2,44(s1)
87f068b4:	96240010 	lhu	a0,16(s1)
87f068b8:	8e250044 	lw	a1,68(s1)
87f068bc:	0dfc17b4 	jal	87f05ed0 <fat_getmaxclusternumber>
87f068c0:	70922002 	mul	a0,a0,s2
87f068c4:	92230016 	lbu	v1,22(s1)
87f068c8:	ae220038 	sw	v0,56(s1)
87f068cc:	70722002 	mul	a0,v1,s2
87f068d0:	8e220040 	lw	v0,64(s1)
87f068d4:	ae200058 	sw	zero,88(s1)
87f068d8:	ae300050 	sw	s0,80(s1)
87f068dc:	00829021 	addu	s2,a0,v0
87f068e0:	ae320054 	sw	s2,84(s1)
87f068e4:	3c0487f1 	lui	a0,0x87f1
87f068e8:	3c0287f1 	lui	v0,0x87f1
87f068ec:	24848f70 	addiu	a0,a0,-28816
87f068f0:	ac408f64 	sw	zero,-28828(v0)
87f068f4:	8c820034 	lw	v0,52(a0)
87f068f8:	ae32004c 	sw	s2,76(s1)
87f068fc:	240500f0 	li	a1,240
87f06900:	90430000 	lbu	v1,0(v0)
87f06904:	306600f0 	andi	a2,v1,0xf0
87f06908:	10c5000b 	beq	a2,a1,87f06938 <fat_initFAT+0x3c4>
87f0690c:	24420001 	addiu	v0,v0,1
87f06910:	ac820034 	sw	v0,52(a0)
87f06914:	240400ff 	li	a0,255
87f06918:	50640008 	beql	v1,a0,87f0693c <fat_initFAT+0x3c8>
87f0691c:	24020001 	li	v0,1
87f06920:	90420002 	lbu	v0,2(v0)
87f06924:	384200ff 	xori	v0,v0,0xff
87f06928:	09fc1a4f 	j	87f0693c <fat_initFAT+0x3c8>
87f0692c:	2c420001 	sltiu	v0,v0,1
87f06930:	09fc1a4f 	j	87f0693c <fat_initFAT+0x3c8>
87f06934:	00001021 	move	v0,zero
87f06938:	24020001 	li	v0,1
87f0693c:	03c0e821 	move	sp,s8
87f06940:	8fbf0224 	lw	ra,548(sp)
87f06944:	8fbe0220 	lw	s8,544(sp)
87f06948:	8fb2021c 	lw	s2,540(sp)
87f0694c:	8fb10218 	lw	s1,536(sp)
87f06950:	8fb00214 	lw	s0,532(sp)
87f06954:	03e00008 	jr	ra
87f06958:	27bd0228 	addiu	sp,sp,552

Disassembly of section .text.UTL_setDrvTmpBufferAddress:

87f0695c <UTL_setDrvTmpBufferAddress>:
87f0695c:	27bdfff8 	addiu	sp,sp,-8
87f06960:	3c0287f1 	lui	v0,0x87f1
87f06964:	afbe0004 	sw	s8,4(sp)
87f06968:	03a0f021 	move	s8,sp
87f0696c:	03c0e821 	move	sp,s8
87f06970:	ac448d48 	sw	a0,-29368(v0)
87f06974:	8fbe0004 	lw	s8,4(sp)
87f06978:	03e00008 	jr	ra
87f0697c:	27bd0008 	addiu	sp,sp,8

Disassembly of section .text.memset:

87f06980 <memset>:
87f06980:	27bdfff8 	addiu	sp,sp,-8
87f06984:	00801021 	move	v0,a0
87f06988:	00801821 	move	v1,a0
87f0698c:	00042023 	negu	a0,a0
87f06990:	afbe0004 	sw	s8,4(sp)
87f06994:	30840003 	andi	a0,a0,0x3
87f06998:	09fc1a6d 	j	87f069b4 <memset+0x34>
87f0699c:	03a0f021 	move	s8,sp
87f069a0:	10c00004 	beqz	a2,87f069b4 <memset+0x34>
87f069a4:	2484ffff 	addiu	a0,a0,-1
87f069a8:	a0650000 	sb	a1,0(v1)
87f069ac:	24c6ffff 	addiu	a2,a2,-1
87f069b0:	24630001 	addiu	v1,v1,1
87f069b4:	1480fffa 	bnez	a0,87f069a0 <memset+0x20>
87f069b8:	00054e00 	sll	t1,a1,0x18
87f069bc:	30a400ff 	andi	a0,a1,0xff
87f069c0:	00054200 	sll	t0,a1,0x8
87f069c4:	01244825 	or	t1,t1,a0
87f069c8:	3108ffff 	andi	t0,t0,0xffff
87f069cc:	00042400 	sll	a0,a0,0x10
87f069d0:	01284025 	or	t0,t1,t0
87f069d4:	01044025 	or	t0,t0,a0
87f069d8:	00c03821 	move	a3,a2
87f069dc:	09fc1a7b 	j	87f069ec <memset+0x6c>
87f069e0:	00602021 	move	a0,v1
87f069e4:	24c6fffc 	addiu	a2,a2,-4
87f069e8:	24840004 	addiu	a0,a0,4
87f069ec:	2cc90004 	sltiu	t1,a2,4
87f069f0:	5120fffc 	beqzl	t1,87f069e4 <memset+0x64>
87f069f4:	ac880000 	sw	t0,0(a0)
87f069f8:	30e40003 	andi	a0,a3,0x3
87f069fc:	00073882 	srl	a3,a3,0x2
87f06a00:	00073880 	sll	a3,a3,0x2
87f06a04:	09fc1a85 	j	87f06a14 <memset+0x94>
87f06a08:	00671821 	addu	v1,v1,a3
87f06a0c:	2484ffff 	addiu	a0,a0,-1
87f06a10:	24630001 	addiu	v1,v1,1
87f06a14:	5480fffd 	bnezl	a0,87f06a0c <memset+0x8c>
87f06a18:	a0650000 	sb	a1,0(v1)
87f06a1c:	03c0e821 	move	sp,s8
87f06a20:	8fbe0004 	lw	s8,4(sp)
87f06a24:	03e00008 	jr	ra
87f06a28:	27bd0008 	addiu	sp,sp,8

Disassembly of section .text.memcpy:

87f06a2c <memcpy>:
87f06a2c:	27bdfff8 	addiu	sp,sp,-8
87f06a30:	00801021 	move	v0,a0
87f06a34:	afbe0004 	sw	s8,4(sp)
87f06a38:	00001821 	move	v1,zero
87f06a3c:	09fc1a96 	j	87f06a58 <memcpy+0x2c>
87f06a40:	03a0f021 	move	s8,sp
87f06a44:	00432021 	addu	a0,v0,v1
87f06a48:	90e70000 	lbu	a3,0(a3)
87f06a4c:	24630001 	addiu	v1,v1,1
87f06a50:	a0870000 	sb	a3,0(a0)
87f06a54:	24c6ffff 	addiu	a2,a2,-1
87f06a58:	14c0fffa 	bnez	a2,87f06a44 <memcpy+0x18>
87f06a5c:	00a33821 	addu	a3,a1,v1
87f06a60:	03c0e821 	move	sp,s8
87f06a64:	8fbe0004 	lw	s8,4(sp)
87f06a68:	03e00008 	jr	ra
87f06a6c:	27bd0008 	addiu	sp,sp,8

Disassembly of section .text.strncmp:

87f06a70 <strncmp>:
87f06a70:	27bdfff8 	addiu	sp,sp,-8
87f06a74:	afbe0004 	sw	s8,4(sp)
87f06a78:	09fc1aaa 	j	87f06aa8 <strncmp+0x38>
87f06a7c:	03a0f021 	move	s8,sp
87f06a80:	90a20000 	lbu	v0,0(a1)
87f06a84:	00621023 	subu	v0,v1,v0
87f06a88:	7c021420 	seb	v0,v0
87f06a8c:	5440000a 	bnezl	v0,87f06ab8 <strncmp+0x48>
87f06a90:	03c0e821 	move	sp,s8
87f06a94:	50600008 	beqzl	v1,87f06ab8 <strncmp+0x48>
87f06a98:	03c0e821 	move	sp,s8
87f06a9c:	24a50001 	addiu	a1,a1,1
87f06aa0:	24840001 	addiu	a0,a0,1
87f06aa4:	24c6ffff 	addiu	a2,a2,-1
87f06aa8:	54c0fff5 	bnezl	a2,87f06a80 <strncmp+0x10>
87f06aac:	90830000 	lbu	v1,0(a0)
87f06ab0:	00001021 	move	v0,zero
87f06ab4:	03c0e821 	move	sp,s8
87f06ab8:	8fbe0004 	lw	s8,4(sp)
87f06abc:	03e00008 	jr	ra
87f06ac0:	27bd0008 	addiu	sp,sp,8

Disassembly of section .text.strchr:

87f06ac4 <strchr>:
87f06ac4:	27bdfff8 	addiu	sp,sp,-8
87f06ac8:	00801021 	move	v0,a0
87f06acc:	afbe0004 	sw	s8,4(sp)
87f06ad0:	30a500ff 	andi	a1,a1,0xff
87f06ad4:	09fc1abb 	j	87f06aec <strchr+0x28>
87f06ad8:	03a0f021 	move	s8,sp
87f06adc:	54600003 	bnezl	v1,87f06aec <strchr+0x28>
87f06ae0:	24420001 	addiu	v0,v0,1
87f06ae4:	09fc1abe 	j	87f06af8 <strchr+0x34>
87f06ae8:	00001021 	move	v0,zero
87f06aec:	90430000 	lbu	v1,0(v0)
87f06af0:	1465fffa 	bne	v1,a1,87f06adc <strchr+0x18>
87f06af4:	00000000 	nop
87f06af8:	03c0e821 	move	sp,s8
87f06afc:	8fbe0004 	lw	s8,4(sp)
87f06b00:	03e00008 	jr	ra
87f06b04:	27bd0008 	addiu	sp,sp,8

Disassembly of section .text.memcmp:

87f06b08 <memcmp>:
87f06b08:	27bdfff8 	addiu	sp,sp,-8
87f06b0c:	00001821 	move	v1,zero
87f06b10:	afbe0004 	sw	s8,4(sp)
87f06b14:	09fc1acc 	j	87f06b30 <memcmp+0x28>
87f06b18:	03a0f021 	move	s8,sp
87f06b1c:	7ca3118a 	lbux	v0,v1(a1)
87f06b20:	00e21023 	subu	v0,a3,v0
87f06b24:	14400005 	bnez	v0,87f06b3c <memcmp+0x34>
87f06b28:	24630001 	addiu	v1,v1,1
87f06b2c:	24c6ffff 	addiu	a2,a2,-1
87f06b30:	54c0fffa 	bnezl	a2,87f06b1c <memcmp+0x14>
87f06b34:	7c83398a 	lbux	a3,v1(a0)
87f06b38:	00001021 	move	v0,zero
87f06b3c:	03c0e821 	move	sp,s8
87f06b40:	8fbe0004 	lw	s8,4(sp)
87f06b44:	03e00008 	jr	ra
87f06b48:	27bd0008 	addiu	sp,sp,8

Disassembly of section .text.cpu_cleanDCacheBlock:

87f06b4c <cpu_cleanDCacheBlock>:
87f06b4c:	27bdffd8 	addiu	sp,sp,-40
87f06b50:	30a2001f 	andi	v0,a1,0x1f
87f06b54:	afbe0020 	sw	s8,32(sp)
87f06b58:	afbf0024 	sw	ra,36(sp)
87f06b5c:	afb0001c 	sw	s0,28(sp)
87f06b60:	10400004 	beqz	v0,87f06b74 <cpu_cleanDCacheBlock+0x28>
87f06b64:	03a0f021 	move	s8,sp
87f06b68:	2402ffe0 	li	v0,-32
87f06b6c:	00a22824 	and	a1,a1,v0
87f06b70:	24a50020 	addiu	a1,a1,32
87f06b74:	2410ffe0 	li	s0,-32
87f06b78:	09fc1ae4 	j	87f06b90 <cpu_cleanDCacheBlock+0x44>
87f06b7c:	00908024 	and	s0,a0,s0
87f06b80:	0dfc141b 	jal	87f0506c <sys_dcache_clean_addr>
87f06b84:	afc50010 	sw	a1,16(s8)
87f06b88:	8fc50010 	lw	a1,16(s8)
87f06b8c:	26100020 	addiu	s0,s0,32
87f06b90:	0205102b 	sltu	v0,s0,a1
87f06b94:	1440fffa 	bnez	v0,87f06b80 <cpu_cleanDCacheBlock+0x34>
87f06b98:	02002021 	move	a0,s0
87f06b9c:	03c0e821 	move	sp,s8
87f06ba0:	8fbf0024 	lw	ra,36(sp)
87f06ba4:	8fbe0020 	lw	s8,32(sp)
87f06ba8:	8fb0001c 	lw	s0,28(sp)
87f06bac:	03e00008 	jr	ra
87f06bb0:	27bd0028 	addiu	sp,sp,40

Disassembly of section .text.CPUflushWriteCache:

87f06bb4 <CPUflushWriteCache>:
87f06bb4:	27bdffe8 	addiu	sp,sp,-24
87f06bb8:	7c830740 	ext	v1,a0,0x1d,0x1
87f06bbc:	afbe0010 	sw	s8,16(sp)
87f06bc0:	afbf0014 	sw	ra,20(sp)
87f06bc4:	14600003 	bnez	v1,87f06bd4 <CPUflushWriteCache+0x20>
87f06bc8:	03a0f021 	move	s8,sp
87f06bcc:	0dfc1ad3 	jal	87f06b4c <cpu_cleanDCacheBlock>
87f06bd0:	00a42821 	addu	a1,a1,a0
87f06bd4:	03c0e821 	move	sp,s8
87f06bd8:	8fbf0014 	lw	ra,20(sp)
87f06bdc:	8fbe0010 	lw	s8,16(sp)
87f06be0:	03e00008 	jr	ra
87f06be4:	27bd0018 	addiu	sp,sp,24

Disassembly of section .text.cpu_cleanDCache:

87f06be8 <cpu_cleanDCache>:
87f06be8:	27bdffe8 	addiu	sp,sp,-24
87f06bec:	afbe0010 	sw	s8,16(sp)
87f06bf0:	afbf0014 	sw	ra,20(sp)
87f06bf4:	0dfc141b 	jal	87f0506c <sys_dcache_clean_addr>
87f06bf8:	03a0f021 	move	s8,sp
87f06bfc:	03c0e821 	move	sp,s8
87f06c00:	8fbf0014 	lw	ra,20(sp)
87f06c04:	8fbe0010 	lw	s8,16(sp)
87f06c08:	03e00008 	jr	ra
87f06c0c:	27bd0018 	addiu	sp,sp,24

Disassembly of section .text.cpu_invalidateDCacheBlock:

87f06c10 <cpu_invalidateDCacheBlock>:
87f06c10:	27bdffd8 	addiu	sp,sp,-40
87f06c14:	30a2001f 	andi	v0,a1,0x1f
87f06c18:	afbe0020 	sw	s8,32(sp)
87f06c1c:	afbf0024 	sw	ra,36(sp)
87f06c20:	afb0001c 	sw	s0,28(sp)
87f06c24:	10400004 	beqz	v0,87f06c38 <cpu_invalidateDCacheBlock+0x28>
87f06c28:	03a0f021 	move	s8,sp
87f06c2c:	2402ffe0 	li	v0,-32
87f06c30:	00a22824 	and	a1,a1,v0
87f06c34:	24a50020 	addiu	a1,a1,32
87f06c38:	2410ffe0 	li	s0,-32
87f06c3c:	09fc1b15 	j	87f06c54 <cpu_invalidateDCacheBlock+0x44>
87f06c40:	00908024 	and	s0,a0,s0
87f06c44:	0dfc1405 	jal	87f05014 <sys_dcache_invalidate_addr>
87f06c48:	afc50010 	sw	a1,16(s8)
87f06c4c:	8fc50010 	lw	a1,16(s8)
87f06c50:	26100020 	addiu	s0,s0,32
87f06c54:	0205102b 	sltu	v0,s0,a1
87f06c58:	1440fffa 	bnez	v0,87f06c44 <cpu_invalidateDCacheBlock+0x34>
87f06c5c:	02002021 	move	a0,s0
87f06c60:	03c0e821 	move	sp,s8
87f06c64:	8fbf0024 	lw	ra,36(sp)
87f06c68:	8fbe0020 	lw	s8,32(sp)
87f06c6c:	8fb0001c 	lw	s0,28(sp)
87f06c70:	03e00008 	jr	ra
87f06c74:	27bd0028 	addiu	sp,sp,40

Disassembly of section .text.CPUflushReadCache:

87f06c78 <CPUflushReadCache>:
87f06c78:	27bdffd8 	addiu	sp,sp,-40
87f06c7c:	7c820740 	ext	v0,a0,0x1d,0x1
87f06c80:	afbe0020 	sw	s8,32(sp)
87f06c84:	afb0001c 	sw	s0,28(sp)
87f06c88:	afbf0024 	sw	ra,36(sp)
87f06c8c:	03a0f021 	move	s8,sp
87f06c90:	14400010 	bnez	v0,87f06cd4 <CPUflushReadCache+0x5c>
87f06c94:	00808021 	move	s0,a0
87f06c98:	3082001f 	andi	v0,a0,0x1f
87f06c9c:	50400005 	beqzl	v0,87f06cb4 <CPUflushReadCache+0x3c>
87f06ca0:	00b02821 	addu	a1,a1,s0
87f06ca4:	0dfc1afa 	jal	87f06be8 <cpu_cleanDCache>
87f06ca8:	afc50010 	sw	a1,16(s8)
87f06cac:	8fc50010 	lw	a1,16(s8)
87f06cb0:	00b02821 	addu	a1,a1,s0
87f06cb4:	30a2001f 	andi	v0,a1,0x1f
87f06cb8:	10400004 	beqz	v0,87f06ccc <CPUflushReadCache+0x54>
87f06cbc:	00a02021 	move	a0,a1
87f06cc0:	0dfc1afa 	jal	87f06be8 <cpu_cleanDCache>
87f06cc4:	afc50010 	sw	a1,16(s8)
87f06cc8:	8fc50010 	lw	a1,16(s8)
87f06ccc:	0dfc1b04 	jal	87f06c10 <cpu_invalidateDCacheBlock>
87f06cd0:	02002021 	move	a0,s0
87f06cd4:	03c0e821 	move	sp,s8
87f06cd8:	8fbf0024 	lw	ra,36(sp)
87f06cdc:	8fbe0020 	lw	s8,32(sp)
87f06ce0:	8fb0001c 	lw	s0,28(sp)
87f06ce4:	03e00008 	jr	ra
87f06ce8:	27bd0028 	addiu	sp,sp,40

Disassembly of section .text.fLib_PutSerialChar:

87f06cec <fLib_PutSerialChar>:
87f06cec:	27bdfff8 	addiu	sp,sp,-8
87f06cf0:	308400ff 	andi	a0,a0,0xff
87f06cf4:	afbe0004 	sw	s8,4(sp)
87f06cf8:	3c02b029 	lui	v0,0xb029
87f06cfc:	03a0f021 	move	s8,sp
87f06d00:	90430014 	lbu	v1,20(v0)
87f06d04:	30630020 	andi	v1,v1,0x20
87f06d08:	1060fffd 	beqz	v1,87f06d00 <fLib_PutSerialChar+0x14>
87f06d0c:	00000000 	nop
87f06d10:	3c02b029 	lui	v0,0xb029
87f06d14:	03c0e821 	move	sp,s8
87f06d18:	a0440000 	sb	a0,0(v0)
87f06d1c:	8fbe0004 	lw	s8,4(sp)
87f06d20:	03e00008 	jr	ra
87f06d24:	27bd0008 	addiu	sp,sp,8

Disassembly of section .text.fLib_PutSerialStr:

87f06d28 <fLib_PutSerialStr>:
87f06d28:	27bdfff8 	addiu	sp,sp,-8
87f06d2c:	3c05b029 	lui	a1,0xb029
87f06d30:	afbe0004 	sw	s8,4(sp)
87f06d34:	3c03b029 	lui	v1,0xb029
87f06d38:	09fc1b56 	j	87f06d58 <fLib_PutSerialStr+0x30>
87f06d3c:	03a0f021 	move	s8,sp
87f06d40:	90a60014 	lbu	a2,20(a1)
87f06d44:	30c60020 	andi	a2,a2,0x20
87f06d48:	10c0fffd 	beqz	a2,87f06d40 <fLib_PutSerialStr+0x18>
87f06d4c:	00000000 	nop
87f06d50:	a0620000 	sb	v0,0(v1)
87f06d54:	24840001 	addiu	a0,a0,1
87f06d58:	90820000 	lbu	v0,0(a0)
87f06d5c:	1440fff8 	bnez	v0,87f06d40 <fLib_PutSerialStr+0x18>
87f06d60:	00000000 	nop
87f06d64:	03c0e821 	move	sp,s8
87f06d68:	8fbe0004 	lw	s8,4(sp)
87f06d6c:	03e00008 	jr	ra
87f06d70:	27bd0008 	addiu	sp,sp,8

Disassembly of section .text.uart_openSystemUART:

87f06d74 <uart_openSystemUART>:
87f06d74:	27bdfff8 	addiu	sp,sp,-8
87f06d78:	3c02b001 	lui	v0,0xb001
87f06d7c:	afbe0004 	sw	s8,4(sp)
87f06d80:	8c430008 	lw	v1,8(v0)
87f06d84:	03a0f021 	move	s8,sp
87f06d88:	34630400 	ori	v1,v1,0x400
87f06d8c:	ac430008 	sw	v1,8(v0)
87f06d90:	3c02b002 	lui	v0,0xb002
87f06d94:	03c0e821 	move	sp,s8
87f06d98:	8c430064 	lw	v1,100(v0)
87f06d9c:	34630400 	ori	v1,v1,0x400
87f06da0:	ac430064 	sw	v1,100(v0)
87f06da4:	8c440064 	lw	a0,100(v0)
87f06da8:	2403ffbf 	li	v1,-65
87f06dac:	00831824 	and	v1,a0,v1
87f06db0:	ac430064 	sw	v1,100(v0)
87f06db4:	3c02b029 	lui	v0,0xb029
87f06db8:	9043000c 	lbu	v1,12(v0)
87f06dbc:	3063007f 	andi	v1,v1,0x7f
87f06dc0:	34630080 	ori	v1,v1,0x80
87f06dc4:	a043000c 	sb	v1,12(v0)
87f06dc8:	2403000d 	li	v1,13
87f06dcc:	a0430000 	sb	v1,0(v0)
87f06dd0:	a0400004 	sb	zero,4(v0)
87f06dd4:	9043000c 	lbu	v1,12(v0)
87f06dd8:	3063007f 	andi	v1,v1,0x7f
87f06ddc:	a043000c 	sb	v1,12(v0)
87f06de0:	9043000c 	lbu	v1,12(v0)
87f06de4:	306300ff 	andi	v1,v1,0xff
87f06de8:	34630003 	ori	v1,v1,0x3
87f06dec:	a043000c 	sb	v1,12(v0)
87f06df0:	24030007 	li	v1,7
87f06df4:	a0430008 	sb	v1,8(v0)
87f06df8:	8fbe0004 	lw	s8,4(sp)
87f06dfc:	03e00008 	jr	ra
87f06e00:	27bd0008 	addiu	sp,sp,8

Disassembly of section .text.rtc_resetShutDownTimer:

87f06e04 <rtc_resetShutDownTimer>:
87f06e04:	27bdfff8 	addiu	sp,sp,-8
87f06e08:	3c02b006 	lui	v0,0xb006
87f06e0c:	afbe0004 	sw	s8,4(sp)
87f06e10:	03a0f021 	move	s8,sp
87f06e14:	03c0e821 	move	sp,s8
87f06e18:	24030001 	li	v1,1
87f06e1c:	ac430018 	sw	v1,24(v0)
87f06e20:	8fbe0004 	lw	s8,4(sp)
87f06e24:	03e00008 	jr	ra
87f06e28:	27bd0008 	addiu	sp,sp,8

Disassembly of section .text.gpio_setDir:

87f06e2c <gpio_setDir>:
87f06e2c:	3083001f 	andi	v1,a0,0x1f
87f06e30:	3c02b007 	lui	v0,0xb007
87f06e34:	00042142 	srl	a0,a0,0x5
87f06e38:	27bdfff8 	addiu	sp,sp,-8
87f06e3c:	34420020 	ori	v0,v0,0x20
87f06e40:	00042080 	sll	a0,a0,0x2
87f06e44:	00822021 	addu	a0,a0,v0
87f06e48:	afbe0004 	sw	s8,4(sp)
87f06e4c:	8c820000 	lw	v0,0(a0)
87f06e50:	10a00005 	beqz	a1,87f06e68 <gpio_setDir+0x3c>
87f06e54:	03a0f021 	move	s8,sp
87f06e58:	24050001 	li	a1,1
87f06e5c:	00651804 	sllv	v1,a1,v1
87f06e60:	09fc1b9e 	j	87f06e78 <gpio_setDir+0x4c>
87f06e64:	00431025 	or	v0,v0,v1
87f06e68:	24050001 	li	a1,1
87f06e6c:	00651804 	sllv	v1,a1,v1
87f06e70:	00031827 	nor	v1,zero,v1
87f06e74:	00621024 	and	v0,v1,v0
87f06e78:	03c0e821 	move	sp,s8
87f06e7c:	ac820000 	sw	v0,0(a0)
87f06e80:	8fbe0004 	lw	s8,4(sp)
87f06e84:	03e00008 	jr	ra
87f06e88:	27bd0008 	addiu	sp,sp,8

Disassembly of section .text.gpio_setPin:

87f06e8c <gpio_setPin>:
87f06e8c:	24020001 	li	v0,1
87f06e90:	27bdfff8 	addiu	sp,sp,-8
87f06e94:	00821004 	sllv	v0,v0,a0
87f06e98:	3c03b007 	lui	v1,0xb007
87f06e9c:	00042142 	srl	a0,a0,0x5
87f06ea0:	00042080 	sll	a0,a0,0x2
87f06ea4:	34630040 	ori	v1,v1,0x40
87f06ea8:	afbe0004 	sw	s8,4(sp)
87f06eac:	00832021 	addu	a0,a0,v1
87f06eb0:	03a0f021 	move	s8,sp
87f06eb4:	03c0e821 	move	sp,s8
87f06eb8:	ac820000 	sw	v0,0(a0)
87f06ebc:	8fbe0004 	lw	s8,4(sp)
87f06ec0:	03e00008 	jr	ra
87f06ec4:	27bd0008 	addiu	sp,sp,8

Disassembly of section .text.gpio_clearPin:

87f06ec8 <gpio_clearPin>:
87f06ec8:	24020001 	li	v0,1
87f06ecc:	27bdfff8 	addiu	sp,sp,-8
87f06ed0:	00821004 	sllv	v0,v0,a0
87f06ed4:	3c03b007 	lui	v1,0xb007
87f06ed8:	00042142 	srl	a0,a0,0x5
87f06edc:	00042080 	sll	a0,a0,0x2
87f06ee0:	34630060 	ori	v1,v1,0x60
87f06ee4:	afbe0004 	sw	s8,4(sp)
87f06ee8:	00832021 	addu	a0,a0,v1
87f06eec:	03a0f021 	move	s8,sp
87f06ef0:	03c0e821 	move	sp,s8
87f06ef4:	ac820000 	sw	v0,0(a0)
87f06ef8:	8fbe0004 	lw	s8,4(sp)
87f06efc:	03e00008 	jr	ra
87f06f00:	27bd0008 	addiu	sp,sp,8

Disassembly of section .text.gpio_getPin:

87f06f04 <gpio_getPin>:
87f06f04:	24020001 	li	v0,1
87f06f08:	27bdfff8 	addiu	sp,sp,-8
87f06f0c:	00821004 	sllv	v0,v0,a0
87f06f10:	00042142 	srl	a0,a0,0x5
87f06f14:	00042080 	sll	a0,a0,0x2
87f06f18:	3c03b007 	lui	v1,0xb007
87f06f1c:	afbe0004 	sw	s8,4(sp)
87f06f20:	7c83200a 	lwx	a0,v1(a0)
87f06f24:	03a0f021 	move	s8,sp
87f06f28:	03c0e821 	move	sp,s8
87f06f2c:	00822024 	and	a0,a0,v0
87f06f30:	00821026 	xor	v0,a0,v0
87f06f34:	2c420001 	sltiu	v0,v0,1
87f06f38:	8fbe0004 	lw	s8,4(sp)
87f06f3c:	03e00008 	jr	ra
87f06f40:	27bd0008 	addiu	sp,sp,8

Disassembly of section .text.timer_delay:

87f06f44 <timer_delay>:
87f06f44:	27bdfff8 	addiu	sp,sp,-8
87f06f48:	3c02b004 	lui	v0,0xb004
87f06f4c:	afbe0004 	sw	s8,4(sp)
87f06f50:	8c430008 	lw	v1,8(v0)
87f06f54:	3c050001 	lui	a1,0x1
87f06f58:	00652825 	or	a1,v1,a1
87f06f5c:	ac450008 	sw	a1,8(v0)
87f06f60:	24050001 	li	a1,1
87f06f64:	03a0f021 	move	s8,sp
87f06f68:	ac450010 	sw	a1,16(v0)
87f06f6c:	8c450018 	lw	a1,24(v0)
87f06f70:	00a4282b 	sltu	a1,a1,a0
87f06f74:	14a0fffd 	bnez	a1,87f06f6c <timer_delay+0x28>
87f06f78:	00000000 	nop
87f06f7c:	3c02b004 	lui	v0,0xb004
87f06f80:	ac400010 	sw	zero,16(v0)
87f06f84:	8c440010 	lw	a0,16(v0)
87f06f88:	1480fffe 	bnez	a0,87f06f84 <timer_delay+0x40>
87f06f8c:	00000000 	nop
87f06f90:	3c02fffe 	lui	v0,0xfffe
87f06f94:	3442ffff 	ori	v0,v0,0xffff
87f06f98:	00621824 	and	v1,v1,v0
87f06f9c:	3c02b004 	lui	v0,0xb004
87f06fa0:	03c0e821 	move	sp,s8
87f06fa4:	ac430008 	sw	v1,8(v0)
87f06fa8:	8fbe0004 	lw	s8,4(sp)
87f06fac:	03e00008 	jr	ra
87f06fb0:	27bd0008 	addiu	sp,sp,8

Disassembly of section .text.timer_getLdrElapse:

87f06fb4 <timer_getLdrElapse>:
87f06fb4:	27bdfff8 	addiu	sp,sp,-8
87f06fb8:	3c03b004 	lui	v1,0xb004
87f06fbc:	afbe0004 	sw	s8,4(sp)
87f06fc0:	03a0f021 	move	s8,sp
87f06fc4:	03c0e821 	move	sp,s8
87f06fc8:	8c620108 	lw	v0,264(v1)
87f06fcc:	ac600100 	sw	zero,256(v1)
87f06fd0:	8fbe0004 	lw	s8,4(sp)
87f06fd4:	03e00008 	jr	ra
87f06fd8:	27bd0008 	addiu	sp,sp,8

Disassembly of section .text.SDHostSimpleCommand:

87f06fdc <SDHostSimpleCommand>:
87f06fdc:	27bdfff8 	addiu	sp,sp,-8
87f06fe0:	3c02b042 	lui	v0,0xb042
87f06fe4:	34830200 	ori	v1,a0,0x200
87f06fe8:	afbe0004 	sw	s8,4(sp)
87f06fec:	ac450004 	sw	a1,4(v0)
87f06ff0:	03a0f021 	move	s8,sp
87f06ff4:	ac430000 	sw	v1,0(v0)
87f06ff8:	8c430028 	lw	v1,40(v0)
87f06ffc:	30630040 	andi	v1,v1,0x40
87f07000:	1060fffd 	beqz	v1,87f06ff8 <SDHostSimpleCommand+0x1c>
87f07004:	24030040 	li	v1,64
87f07008:	3c02b042 	lui	v0,0xb042
87f0700c:	ac430028 	sw	v1,40(v0)
87f07010:	30820080 	andi	v0,a0,0x80
87f07014:	10400013 	beqz	v0,87f07064 <SDHostSimpleCommand+0x88>
87f07018:	30840040 	andi	a0,a0,0x40
87f0701c:	3c04b042 	lui	a0,0xb042
87f07020:	8c830028 	lw	v1,40(a0)
87f07024:	30650005 	andi	a1,v1,0x5
87f07028:	14a00015 	bnez	a1,87f07080 <SDHostSimpleCommand+0xa4>
87f0702c:	3c02b042 	lui	v0,0xb042
87f07030:	30630010 	andi	v1,v1,0x10
87f07034:	1060fffa 	beqz	v1,87f07020 <SDHostSimpleCommand+0x44>
87f07038:	24030015 	li	v1,21
87f0703c:	ac430028 	sw	v1,40(v0)
87f07040:	8c430008 	lw	v1,8(v0)
87f07044:	acc30000 	sw	v1,0(a2)
87f07048:	8c43000c 	lw	v1,12(v0)
87f0704c:	acc30004 	sw	v1,4(a2)
87f07050:	8c430010 	lw	v1,16(v0)
87f07054:	acc30008 	sw	v1,8(a2)
87f07058:	8c420014 	lw	v0,20(v0)
87f0705c:	09fc1c2a 	j	87f070a8 <SDHostSimpleCommand+0xcc>
87f07060:	acc2000c 	sw	v0,12(a2)
87f07064:	10800011 	beqz	a0,87f070ac <SDHostSimpleCommand+0xd0>
87f07068:	00001021 	move	v0,zero
87f0706c:	3c04b042 	lui	a0,0xb042
87f07070:	8c830028 	lw	v1,40(a0)
87f07074:	30650005 	andi	a1,v1,0x5
87f07078:	10a00005 	beqz	a1,87f07090 <SDHostSimpleCommand+0xb4>
87f0707c:	3c02b042 	lui	v0,0xb042
87f07080:	24030015 	li	v1,21
87f07084:	ac430028 	sw	v1,40(v0)
87f07088:	09fc1c2b 	j	87f070ac <SDHostSimpleCommand+0xd0>
87f0708c:	2402ffff 	li	v0,-1
87f07090:	30630010 	andi	v1,v1,0x10
87f07094:	1060fff6 	beqz	v1,87f07070 <SDHostSimpleCommand+0x94>
87f07098:	24030015 	li	v1,21
87f0709c:	ac430028 	sw	v1,40(v0)
87f070a0:	8c420008 	lw	v0,8(v0)
87f070a4:	acc20000 	sw	v0,0(a2)
87f070a8:	00001021 	move	v0,zero
87f070ac:	03c0e821 	move	sp,s8
87f070b0:	8fbe0004 	lw	s8,4(sp)
87f070b4:	03e00008 	jr	ra
87f070b8:	27bd0008 	addiu	sp,sp,8

Disassembly of section .text.SDHostDataCommand:

87f070bc <SDHostDataCommand>:
87f070bc:	27bdfff8 	addiu	sp,sp,-8
87f070c0:	3c02b042 	lui	v0,0xb042
87f070c4:	3c03016e 	lui	v1,0x16e
87f070c8:	afbe0004 	sw	s8,4(sp)
87f070cc:	34633600 	ori	v1,v1,0x3600
87f070d0:	03a0f021 	move	s8,sp
87f070d4:	ac470110 	sw	a3,272(v0)
87f070d8:	ac430020 	sw	v1,32(v0)
87f070dc:	8fc30018 	lw	v1,24(s8)
87f070e0:	ac430104 	sw	v1,260(v0)
87f070e4:	3c030200 	lui	v1,0x200
87f070e8:	34630240 	ori	v1,v1,0x240
87f070ec:	ac43001c 	sw	v1,28(v0)
87f070f0:	24030002 	li	v1,2
87f070f4:	ac43010c 	sw	v1,268(v0)
87f070f8:	24030003 	li	v1,3
87f070fc:	ac43010c 	sw	v1,268(v0)
87f07100:	34830200 	ori	v1,a0,0x200
87f07104:	ac450004 	sw	a1,4(v0)
87f07108:	ac430000 	sw	v1,0(v0)
87f0710c:	8c430028 	lw	v1,40(v0)
87f07110:	30630040 	andi	v1,v1,0x40
87f07114:	1060fffd 	beqz	v1,87f0710c <SDHostDataCommand+0x50>
87f07118:	24030040 	li	v1,64
87f0711c:	3c02b042 	lui	v0,0xb042
87f07120:	ac430028 	sw	v1,40(v0)
87f07124:	30820080 	andi	v0,a0,0x80
87f07128:	10400013 	beqz	v0,87f07178 <SDHostDataCommand+0xbc>
87f0712c:	30840040 	andi	a0,a0,0x40
87f07130:	3c04b042 	lui	a0,0xb042
87f07134:	8c830028 	lw	v1,40(a0)
87f07138:	30650005 	andi	a1,v1,0x5
87f0713c:	14a00014 	bnez	a1,87f07190 <SDHostDataCommand+0xd4>
87f07140:	3c02b042 	lui	v0,0xb042
87f07144:	30630010 	andi	v1,v1,0x10
87f07148:	1060fffa 	beqz	v1,87f07134 <SDHostDataCommand+0x78>
87f0714c:	24030015 	li	v1,21
87f07150:	ac430028 	sw	v1,40(v0)
87f07154:	8c430008 	lw	v1,8(v0)
87f07158:	acc30000 	sw	v1,0(a2)
87f0715c:	8c43000c 	lw	v1,12(v0)
87f07160:	acc30004 	sw	v1,4(a2)
87f07164:	8c430010 	lw	v1,16(v0)
87f07168:	acc30008 	sw	v1,8(a2)
87f0716c:	8c420014 	lw	v0,20(v0)
87f07170:	09fc1c6c 	j	87f071b0 <SDHostDataCommand+0xf4>
87f07174:	acc2000c 	sw	v0,12(a2)
87f07178:	1080000e 	beqz	a0,87f071b4 <SDHostDataCommand+0xf8>
87f0717c:	3c04b042 	lui	a0,0xb042
87f07180:	8c830028 	lw	v1,40(a0)
87f07184:	30650005 	andi	a1,v1,0x5
87f07188:	10a00003 	beqz	a1,87f07198 <SDHostDataCommand+0xdc>
87f0718c:	3c02b042 	lui	v0,0xb042
87f07190:	09fc1c72 	j	87f071c8 <SDHostDataCommand+0x10c>
87f07194:	24030015 	li	v1,21
87f07198:	30630010 	andi	v1,v1,0x10
87f0719c:	1060fff8 	beqz	v1,87f07180 <SDHostDataCommand+0xc4>
87f071a0:	24030015 	li	v1,21
87f071a4:	ac430028 	sw	v1,40(v0)
87f071a8:	8c420008 	lw	v0,8(v0)
87f071ac:	acc20000 	sw	v0,0(a2)
87f071b0:	3c04b042 	lui	a0,0xb042
87f071b4:	8c830028 	lw	v1,40(a0)
87f071b8:	3065000a 	andi	a1,v1,0xa
87f071bc:	10a00005 	beqz	a1,87f071d4 <SDHostDataCommand+0x118>
87f071c0:	3c02b042 	lui	v0,0xb042
87f071c4:	240300aa 	li	v1,170
87f071c8:	ac430028 	sw	v1,40(v0)
87f071cc:	09fc1c7a 	j	87f071e8 <SDHostDataCommand+0x12c>
87f071d0:	2402ffff 	li	v0,-1
87f071d4:	306300a0 	andi	v1,v1,0xa0
87f071d8:	1060fff6 	beqz	v1,87f071b4 <SDHostDataCommand+0xf8>
87f071dc:	240300aa 	li	v1,170
87f071e0:	ac430028 	sw	v1,40(v0)
87f071e4:	00001021 	move	v0,zero
87f071e8:	03c0e821 	move	sp,s8
87f071ec:	8fbe0004 	lw	s8,4(sp)
87f071f0:	03e00008 	jr	ra
87f071f4:	27bd0008 	addiu	sp,sp,8

Disassembly of section .text.card_close:

87f071f8 <card_close>:
87f071f8:	27bdfff8 	addiu	sp,sp,-8
87f071fc:	3c02b042 	lui	v0,0xb042
87f07200:	afbe0004 	sw	s8,4(sp)
87f07204:	ac40003c 	sw	zero,60(v0)
87f07208:	3c02b002 	lui	v0,0xb002
87f0720c:	03a0f021 	move	s8,sp
87f07210:	8c440064 	lw	a0,100(v0)
87f07214:	2403fffb 	li	v1,-5
87f07218:	03c0e821 	move	sp,s8
87f0721c:	00831824 	and	v1,a0,v1
87f07220:	ac430064 	sw	v1,100(v0)
87f07224:	8fbe0004 	lw	s8,4(sp)
87f07228:	03e00008 	jr	ra
87f0722c:	27bd0008 	addiu	sp,sp,8

Disassembly of section .text.card_open:

87f07230 <card_open>:
87f07230:	27bdffc8 	addiu	sp,sp,-56
87f07234:	3c02b001 	lui	v0,0xb001
87f07238:	24034000 	li	v1,16384
87f0723c:	afbe0030 	sw	s8,48(sp)
87f07240:	afbf0034 	sw	ra,52(sp)
87f07244:	afb3002c 	sw	s3,44(sp)
87f07248:	afb20028 	sw	s2,40(sp)
87f0724c:	afb10024 	sw	s1,36(sp)
87f07250:	afb00020 	sw	s0,32(sp)
87f07254:	ac430004 	sw	v1,4(v0)
87f07258:	3c02b002 	lui	v0,0xb002
87f0725c:	03a0f021 	move	s8,sp
87f07260:	8c430064 	lw	v1,100(v0)
87f07264:	34630004 	ori	v1,v1,0x4
87f07268:	ac430064 	sw	v1,100(v0)
87f0726c:	3c02b042 	lui	v0,0xb042
87f07270:	8c430000 	lw	v1,0(v0)
87f07274:	34630400 	ori	v1,v1,0x400
87f07278:	ac430000 	sw	v1,0(v0)
87f0727c:	8c440000 	lw	a0,0(v0)
87f07280:	30840400 	andi	a0,a0,0x400
87f07284:	1480fffd 	bnez	a0,87f0727c <card_open+0x4c>
87f07288:	3c03b042 	lui	v1,0xb042
87f0728c:	24020600 	li	v0,1536
87f07290:	ac620038 	sw	v0,56(v1)
87f07294:	3c02b002 	lui	v0,0xb002
87f07298:	2404ffcf 	li	a0,-49
87f0729c:	8c450020 	lw	a1,32(v0)
87f072a0:	00a42024 	and	a0,a1,a0
87f072a4:	ac440020 	sw	a0,32(v0)
87f072a8:	24040077 	li	a0,119
87f072ac:	ac44003c 	sw	a0,60(v0)
87f072b0:	24020200 	li	v0,512
87f072b4:	240403e8 	li	a0,1000
87f072b8:	ac620038 	sw	v0,56(v1)
87f072bc:	0dfc1bd1 	jal	87f06f44 <timer_delay>
87f072c0:	00000000 	nop
87f072c4:	00002021 	move	a0,zero
87f072c8:	00002821 	move	a1,zero
87f072cc:	0dfc1bf7 	jal	87f06fdc <SDHostSimpleCommand>
87f072d0:	00003021 	move	a2,zero
87f072d4:	04400092 	bltz	v0,87f07520 <card_open+0x2f0>
87f072d8:	3c068000 	lui	a2,0x8000
87f072dc:	24040048 	li	a0,72
87f072e0:	240501aa 	li	a1,426
87f072e4:	0dfc1bf7 	jal	87f06fdc <SDHostSimpleCommand>
87f072e8:	34c61000 	ori	a2,a2,0x1000
87f072ec:	04410002 	bgez	v0,87f072f8 <card_open+0xc8>
87f072f0:	3c1340ff 	lui	s3,0x40ff
87f072f4:	3c1300ff 	lui	s3,0xff
87f072f8:	3c108000 	lui	s0,0x8000
87f072fc:	36738000 	ori	s3,s3,0x8000
87f07300:	24120fa0 	li	s2,4000
87f07304:	36111000 	ori	s1,s0,0x1000
87f07308:	24040077 	li	a0,119
87f0730c:	00002821 	move	a1,zero
87f07310:	0dfc1bf7 	jal	87f06fdc <SDHostSimpleCommand>
87f07314:	02203021 	move	a2,s1
87f07318:	04400081 	bltz	v0,87f07520 <card_open+0x2f0>
87f0731c:	24040069 	li	a0,105
87f07320:	02602821 	move	a1,s3
87f07324:	0dfc1bf7 	jal	87f06fdc <SDHostSimpleCommand>
87f07328:	02203021 	move	a2,s1
87f0732c:	0440007d 	bltz	v0,87f07524 <card_open+0x2f4>
87f07330:	00001021 	move	v0,zero
87f07334:	8e031000 	lw	v1,4096(s0)
87f07338:	0463000d 	bgezl	v1,87f07370 <card_open+0x140>
87f0733c:	2652ffff 	addiu	s2,s2,-1
87f07340:	3c024000 	lui	v0,0x4000
87f07344:	00621824 	and	v1,v1,v0
87f07348:	50600007 	beqzl	v1,87f07368 <card_open+0x138>
87f0734c:	3c0287f1 	lui	v0,0x87f1
87f07350:	02629824 	and	s3,s3,v0
87f07354:	12600004 	beqz	s3,87f07368 <card_open+0x138>
87f07358:	3c0287f1 	lui	v0,0x87f1
87f0735c:	24030001 	li	v1,1
87f07360:	09fc1ce0 	j	87f07380 <card_open+0x150>
87f07364:	ac438fe0 	sw	v1,-28704(v0)
87f07368:	09fc1ce0 	j	87f07380 <card_open+0x150>
87f0736c:	ac408fe0 	sw	zero,-28704(v0)
87f07370:	5640ffe6 	bnezl	s2,87f0730c <card_open+0xdc>
87f07374:	24040077 	li	a0,119
87f07378:	09fc1ce3 	j	87f0738c <card_open+0x15c>
87f0737c:	3c0487f1 	lui	a0,0x87f1
87f07380:	16400006 	bnez	s2,87f0739c <card_open+0x16c>
87f07384:	3c108000 	lui	s0,0x8000
87f07388:	3c0487f1 	lui	a0,0x87f1
87f0738c:	0dfc1b4a 	jal	87f06d28 <fLib_PutSerialStr>
87f07390:	24848f04 	addiu	a0,a0,-28924
87f07394:	09fc1d49 	j	87f07524 <card_open+0x2f4>
87f07398:	00001021 	move	v0,zero
87f0739c:	240400c2 	li	a0,194
87f073a0:	00002821 	move	a1,zero
87f073a4:	0dfc1bf7 	jal	87f06fdc <SDHostSimpleCommand>
87f073a8:	36061000 	ori	a2,s0,0x1000
87f073ac:	0440005c 	bltz	v0,87f07520 <card_open+0x2f0>
87f073b0:	3c0687f1 	lui	a2,0x87f1
87f073b4:	24040043 	li	a0,67
87f073b8:	00002821 	move	a1,zero
87f073bc:	0dfc1bf7 	jal	87f06fdc <SDHostSimpleCommand>
87f073c0:	24c68fe4 	addiu	a2,a2,-28700
87f073c4:	04400056 	bltz	v0,87f07520 <card_open+0x2f0>
87f073c8:	3c11b042 	lui	s1,0xb042
87f073cc:	2403fe00 	li	v1,-512
87f073d0:	8e220038 	lw	v0,56(s1)
87f073d4:	3c1387f1 	lui	s3,0x87f1
87f073d8:	34420400 	ori	v0,v0,0x400
87f073dc:	ae220038 	sw	v0,56(s1)
87f073e0:	24020600 	li	v0,1536
87f073e4:	ae220038 	sw	v0,56(s1)
87f073e8:	3c02b002 	lui	v0,0xb002
87f073ec:	26738fe0 	addiu	s3,s3,-28704
87f073f0:	8c44003c 	lw	a0,60(v0)
87f073f4:	36061000 	ori	a2,s0,0x1000
87f073f8:	00831824 	and	v1,a0,v1
87f073fc:	34630001 	ori	v1,v1,0x1
87f07400:	ac43003c 	sw	v1,60(v0)
87f07404:	24020200 	li	v0,512
87f07408:	ae220038 	sw	v0,56(s1)
87f0740c:	8e650004 	lw	a1,4(s3)
87f07410:	0dfc1bf7 	jal	87f06fdc <SDHostSimpleCommand>
87f07414:	24040047 	li	a0,71
87f07418:	04400041 	bltz	v0,87f07520 <card_open+0x2f0>
87f0741c:	27d20018 	addiu	s2,s8,24
87f07420:	24040050 	li	a0,80
87f07424:	24050008 	li	a1,8
87f07428:	0dfc1bf7 	jal	87f06fdc <SDHostSimpleCommand>
87f0742c:	02403021 	move	a2,s2
87f07430:	0440003b 	bltz	v0,87f07520 <card_open+0x2f0>
87f07434:	24040077 	li	a0,119
87f07438:	8e650004 	lw	a1,4(s3)
87f0743c:	0dfc1bf7 	jal	87f06fdc <SDHostSimpleCommand>
87f07440:	02403021 	move	a2,s2
87f07444:	04400036 	bltz	v0,87f07520 <card_open+0x2f0>
87f07448:	36041000 	ori	a0,s0,0x1000
87f0744c:	0dfc1b1e 	jal	87f06c78 <CPUflushReadCache>
87f07450:	24050008 	li	a1,8
87f07454:	24020008 	li	v0,8
87f07458:	24040073 	li	a0,115
87f0745c:	00002821 	move	a1,zero
87f07460:	02403021 	move	a2,s2
87f07464:	36071000 	ori	a3,s0,0x1000
87f07468:	0dfc1c2f 	jal	87f070bc <SDHostDataCommand>
87f0746c:	afa20010 	sw	v0,16(sp)
87f07470:	8e021000 	lw	v0,4096(s0)
87f07474:	24040077 	li	a0,119
87f07478:	afc2001c 	sw	v0,28(s8)
87f0747c:	00021602 	srl	v0,v0,0x18
87f07480:	a2021000 	sb	v0,4096(s0)
87f07484:	93c2001e 	lbu	v0,30(s8)
87f07488:	02403021 	move	a2,s2
87f0748c:	a2021001 	sb	v0,4097(s0)
87f07490:	93c2001d 	lbu	v0,29(s8)
87f07494:	a2021002 	sb	v0,4098(s0)
87f07498:	93c2001c 	lbu	v0,28(s8)
87f0749c:	a2021003 	sb	v0,4099(s0)
87f074a0:	8e021004 	lw	v0,4100(s0)
87f074a4:	afc2001c 	sw	v0,28(s8)
87f074a8:	00021602 	srl	v0,v0,0x18
87f074ac:	a2021004 	sb	v0,4100(s0)
87f074b0:	93c2001e 	lbu	v0,30(s8)
87f074b4:	a2021005 	sb	v0,4101(s0)
87f074b8:	93c2001d 	lbu	v0,29(s8)
87f074bc:	a2021006 	sb	v0,4102(s0)
87f074c0:	93c2001c 	lbu	v0,28(s8)
87f074c4:	a2021007 	sb	v0,4103(s0)
87f074c8:	96101002 	lhu	s0,4098(s0)
87f074cc:	24020002 	li	v0,2
87f074d0:	32100004 	andi	s0,s0,0x4
87f074d4:	8e650004 	lw	a1,4(s3)
87f074d8:	0010100a 	movz	v0,zero,s0
87f074dc:	0dfc1bf7 	jal	87f06fdc <SDHostSimpleCommand>
87f074e0:	00408021 	move	s0,v0
87f074e4:	0440000e 	bltz	v0,87f07520 <card_open+0x2f0>
87f074e8:	24040046 	li	a0,70
87f074ec:	02002821 	move	a1,s0
87f074f0:	0dfc1bf7 	jal	87f06fdc <SDHostSimpleCommand>
87f074f4:	02403021 	move	a2,s2
87f074f8:	0442000a 	bltzl	v0,87f07524 <card_open+0x2f4>
87f074fc:	00001021 	move	v0,zero
87f07500:	56000004 	bnezl	s0,87f07514 <card_open+0x2e4>
87f07504:	24020001 	li	v0,1
87f07508:	ae20003c 	sw	zero,60(s1)
87f0750c:	09fc1d52 	j	87f07548 <card_open+0x318>
87f07510:	3c068000 	lui	a2,0x8000
87f07514:	ae22003c 	sw	v0,60(s1)
87f07518:	09fc1d52 	j	87f07548 <card_open+0x318>
87f0751c:	3c068000 	lui	a2,0x8000
87f07520:	00001021 	move	v0,zero
87f07524:	03c0e821 	move	sp,s8
87f07528:	8fbf0034 	lw	ra,52(sp)
87f0752c:	8fbe0030 	lw	s8,48(sp)
87f07530:	8fb3002c 	lw	s3,44(sp)
87f07534:	8fb20028 	lw	s2,40(sp)
87f07538:	8fb10024 	lw	s1,36(sp)
87f0753c:	8fb00020 	lw	s0,32(sp)
87f07540:	03e00008 	jr	ra
87f07544:	27bd0038 	addiu	sp,sp,56
87f07548:	24040050 	li	a0,80
87f0754c:	24050200 	li	a1,512
87f07550:	0dfc1bf7 	jal	87f06fdc <SDHostSimpleCommand>
87f07554:	34c61000 	ori	a2,a2,0x1000
87f07558:	3c0487f0 	lui	a0,0x87f0
87f0755c:	0dfc1805 	jal	87f06014 <fat_regfilesystem>
87f07560:	2484756c 	addiu	a0,a0,30060
87f07564:	09fc1d49 	j	87f07524 <card_open+0x2f4>
87f07568:	24020001 	li	v0,1

Disassembly of section .text.CardReadSector:

87f0756c <CardReadSector>:
87f0756c:	27bdffb0 	addiu	sp,sp,-80
87f07570:	afbe0048 	sw	s8,72(sp)
87f07574:	03a0f021 	move	s8,sp
87f07578:	afb70044 	sw	s7,68(sp)
87f0757c:	0080b821 	move	s7,a0
87f07580:	24040052 	li	a0,82
87f07584:	afb60040 	sw	s6,64(sp)
87f07588:	afb5003c 	sw	s5,60(sp)
87f0758c:	afb40038 	sw	s4,56(sp)
87f07590:	afb30034 	sw	s3,52(sp)
87f07594:	afb20030 	sw	s2,48(sp)
87f07598:	afb1002c 	sw	s1,44(sp)
87f0759c:	afb00028 	sw	s0,40(sp)
87f075a0:	afc50024 	sw	a1,36(s8)
87f075a4:	afbf004c 	sw	ra,76(sp)
87f075a8:	0dfc1b3b 	jal	87f06cec <fLib_PutSerialChar>
87f075ac:	00c0a821 	move	s5,a2
87f075b0:	8fc50024 	lw	a1,36(s8)
87f075b4:	00171240 	sll	v0,s7,0x9
87f075b8:	0005b240 	sll	s6,a1,0x9
87f075bc:	afc20020 	sw	v0,32(s8)
87f075c0:	24100003 	li	s0,3
87f075c4:	3c1187f1 	lui	s1,0x87f1
87f075c8:	27d40018 	addiu	s4,s8,24
87f075cc:	3c12b042 	lui	s2,0xb042
87f075d0:	3c13b042 	lui	s3,0xb042
87f075d4:	3c0387f1 	lui	v1,0x87f1
87f075d8:	24638fe0 	addiu	v1,v1,-28704
87f075dc:	2404004d 	li	a0,77
87f075e0:	8c650004 	lw	a1,4(v1)
87f075e4:	0dfc1bf7 	jal	87f06fdc <SDHostSimpleCommand>
87f075e8:	02803021 	move	a2,s4
87f075ec:	0440002b 	bltz	v0,87f0769c <CardReadSector+0x130>
87f075f0:	24030800 	li	v1,2048
87f075f4:	8fc20018 	lw	v0,24(s8)
87f075f8:	30421e00 	andi	v0,v0,0x1e00
87f075fc:	1443fff6 	bne	v0,v1,87f075d8 <CardReadSector+0x6c>
87f07600:	3c0387f1 	lui	v1,0x87f1
87f07604:	02a02021 	move	a0,s5
87f07608:	0dfc1b1e 	jal	87f06c78 <CPUflushReadCache>
87f0760c:	02c02821 	move	a1,s6
87f07610:	8e258fe0 	lw	a1,-28704(s1)
87f07614:	8fc20020 	lw	v0,32(s8)
87f07618:	24040052 	li	a0,82
87f0761c:	02e5100b 	movn	v0,s7,a1
87f07620:	02803021 	move	a2,s4
87f07624:	00402821 	move	a1,v0
87f07628:	02a03821 	move	a3,s5
87f0762c:	0dfc1c2f 	jal	87f070bc <SDHostDataCommand>
87f07630:	afb60010 	sw	s6,16(sp)
87f07634:	04410016 	bgez	v0,87f07690 <CardReadSector+0x124>
87f07638:	2404084c 	li	a0,2124
87f0763c:	ae40010c 	sw	zero,268(s2)
87f07640:	8e42010c 	lw	v0,268(s2)
87f07644:	30420001 	andi	v0,v0,0x1
87f07648:	1440fffd 	bnez	v0,87f07640 <CardReadSector+0xd4>
87f0764c:	00000000 	nop
87f07650:	ae60001c 	sw	zero,28(s3)
87f07654:	8e620000 	lw	v0,0(s3)
87f07658:	34420400 	ori	v0,v0,0x400
87f0765c:	ae620000 	sw	v0,0(s3)
87f07660:	8e420000 	lw	v0,0(s2)
87f07664:	30420400 	andi	v0,v0,0x400
87f07668:	1440fffd 	bnez	v0,87f07660 <CardReadSector+0xf4>
87f0766c:	2404084c 	li	a0,2124
87f07670:	00002821 	move	a1,zero
87f07674:	02803021 	move	a2,s4
87f07678:	0dfc1bf7 	jal	87f06fdc <SDHostSimpleCommand>
87f0767c:	2610ffff 	addiu	s0,s0,-1
87f07680:	1600ffd4 	bnez	s0,87f075d4 <CardReadSector+0x68>
87f07684:	2402ffff 	li	v0,-1
87f07688:	09fc1da8 	j	87f076a0 <CardReadSector+0x134>
87f0768c:	03c0e821 	move	sp,s8
87f07690:	00002821 	move	a1,zero
87f07694:	0dfc1bf7 	jal	87f06fdc <SDHostSimpleCommand>
87f07698:	02803021 	move	a2,s4
87f0769c:	03c0e821 	move	sp,s8
87f076a0:	00021027 	nor	v0,zero,v0
87f076a4:	8fbf004c 	lw	ra,76(sp)
87f076a8:	000217c2 	srl	v0,v0,0x1f
87f076ac:	8fbe0048 	lw	s8,72(sp)
87f076b0:	8fb70044 	lw	s7,68(sp)
87f076b4:	8fb60040 	lw	s6,64(sp)
87f076b8:	8fb5003c 	lw	s5,60(sp)
87f076bc:	8fb40038 	lw	s4,56(sp)
87f076c0:	8fb30034 	lw	s3,52(sp)
87f076c4:	8fb20030 	lw	s2,48(sp)
87f076c8:	8fb1002c 	lw	s1,44(sp)
87f076cc:	8fb00028 	lw	s0,40(sp)
87f076d0:	03e00008 	jr	ra
87f076d4:	27bd0050 	addiu	sp,sp,80

Disassembly of section .text.spiFlash_eraseSector:

87f076d8 <spiFlash_eraseSector>:
87f076d8:	27bdfff8 	addiu	sp,sp,-8
87f076dc:	3c02b023 	lui	v0,0xb023
87f076e0:	afbe0004 	sw	s8,4(sp)
87f076e4:	8c450000 	lw	a1,0(v0)
87f076e8:	3c03ffff 	lui	v1,0xffff
87f076ec:	34637fff 	ori	v1,v1,0x7fff
87f076f0:	00a31824 	and	v1,a1,v1
87f076f4:	ac430000 	sw	v1,0(v0)
87f076f8:	8c450000 	lw	a1,0(v0)
87f076fc:	2403feff 	li	v1,-257
87f07700:	8c460018 	lw	a2,24(v0)
87f07704:	00a32824 	and	a1,a1,v1
87f07708:	2403fffc 	li	v1,-4
87f0770c:	00c31824 	and	v1,a2,v1
87f07710:	ac450000 	sw	a1,0(v0)
87f07714:	03a0f021 	move	s8,sp
87f07718:	ac430018 	sw	v1,24(v0)
87f0771c:	8c430004 	lw	v1,4(v0)
87f07720:	30630001 	andi	v1,v1,0x1
87f07724:	1060fffd 	beqz	v1,87f0771c <spiFlash_eraseSector+0x44>
87f07728:	24030006 	li	v1,6
87f0772c:	3c02b023 	lui	v0,0xb023
87f07730:	ac430010 	sw	v1,16(v0)
87f07734:	3c03b023 	lui	v1,0xb023
87f07738:	8c650004 	lw	a1,4(v1)
87f0773c:	30a50002 	andi	a1,a1,0x2
87f07740:	10a0fffd 	beqz	a1,87f07738 <spiFlash_eraseSector+0x60>
87f07744:	3c02b023 	lui	v0,0xb023
87f07748:	8c43000c 	lw	v1,12(v0)
87f0774c:	8c430000 	lw	v1,0(v0)
87f07750:	34638000 	ori	v1,v1,0x8000
87f07754:	ac430000 	sw	v1,0(v0)
87f07758:	8c450000 	lw	a1,0(v0)
87f0775c:	3c03ffff 	lui	v1,0xffff
87f07760:	34637fff 	ori	v1,v1,0x7fff
87f07764:	00a31824 	and	v1,a1,v1
87f07768:	ac430000 	sw	v1,0(v0)
87f0776c:	8c460000 	lw	a2,0(v0)
87f07770:	8c430018 	lw	v1,24(v0)
87f07774:	2405feff 	li	a1,-257
87f07778:	00c52824 	and	a1,a2,a1
87f0777c:	34630003 	ori	v1,v1,0x3
87f07780:	ac450000 	sw	a1,0(v0)
87f07784:	ac430018 	sw	v1,24(v0)
87f07788:	8c430004 	lw	v1,4(v0)
87f0778c:	30630001 	andi	v1,v1,0x1
87f07790:	1060fffd 	beqz	v1,87f07788 <spiFlash_eraseSector+0xb0>
87f07794:	00041e00 	sll	v1,a0,0x18
87f07798:	3082ff00 	andi	v0,a0,0xff00
87f0779c:	34630020 	ori	v1,v1,0x20
87f077a0:	00021200 	sll	v0,v0,0x8
87f077a4:	00042202 	srl	a0,a0,0x8
87f077a8:	00621025 	or	v0,v1,v0
87f077ac:	3084ff00 	andi	a0,a0,0xff00
87f077b0:	00442025 	or	a0,v0,a0
87f077b4:	3c02b023 	lui	v0,0xb023
87f077b8:	3c03b023 	lui	v1,0xb023
87f077bc:	ac440010 	sw	a0,16(v0)
87f077c0:	8c640004 	lw	a0,4(v1)
87f077c4:	30840002 	andi	a0,a0,0x2
87f077c8:	1080fffd 	beqz	a0,87f077c0 <spiFlash_eraseSector+0xe8>
87f077cc:	3c02b023 	lui	v0,0xb023
87f077d0:	8c43000c 	lw	v1,12(v0)
87f077d4:	8c430000 	lw	v1,0(v0)
87f077d8:	03c0e821 	move	sp,s8
87f077dc:	34638000 	ori	v1,v1,0x8000
87f077e0:	ac430000 	sw	v1,0(v0)
87f077e4:	8fbe0004 	lw	s8,4(sp)
87f077e8:	03e00008 	jr	ra
87f077ec:	27bd0008 	addiu	sp,sp,8

Disassembly of section .text.spiFlash_waitReady:

87f077f0 <spiFlash_waitReady>:
87f077f0:	27bdfff8 	addiu	sp,sp,-8
87f077f4:	3c02b023 	lui	v0,0xb023
87f077f8:	afbe0004 	sw	s8,4(sp)
87f077fc:	8c440000 	lw	a0,0(v0)
87f07800:	3c03ffff 	lui	v1,0xffff
87f07804:	34637fff 	ori	v1,v1,0x7fff
87f07808:	00831824 	and	v1,a0,v1
87f0780c:	ac430000 	sw	v1,0(v0)
87f07810:	8c440000 	lw	a0,0(v0)
87f07814:	2403feff 	li	v1,-257
87f07818:	8c450018 	lw	a1,24(v0)
87f0781c:	00832024 	and	a0,a0,v1
87f07820:	2403fffc 	li	v1,-4
87f07824:	00a31824 	and	v1,a1,v1
87f07828:	ac440000 	sw	a0,0(v0)
87f0782c:	03a0f021 	move	s8,sp
87f07830:	ac430018 	sw	v1,24(v0)
87f07834:	8c430004 	lw	v1,4(v0)
87f07838:	30630001 	andi	v1,v1,0x1
87f0783c:	1060fffd 	beqz	v1,87f07834 <spiFlash_waitReady+0x44>
87f07840:	24030005 	li	v1,5
87f07844:	3c02b023 	lui	v0,0xb023
87f07848:	ac430010 	sw	v1,16(v0)
87f0784c:	8c430004 	lw	v1,4(v0)
87f07850:	30630002 	andi	v1,v1,0x2
87f07854:	1060fffd 	beqz	v1,87f0784c <spiFlash_waitReady+0x5c>
87f07858:	240500ff 	li	a1,255
87f0785c:	3c02b023 	lui	v0,0xb023
87f07860:	8c42000c 	lw	v0,12(v0)
87f07864:	3c04b023 	lui	a0,0xb023
87f07868:	3c02b023 	lui	v0,0xb023
87f0786c:	8c430004 	lw	v1,4(v0)
87f07870:	30630001 	andi	v1,v1,0x1
87f07874:	1060fffd 	beqz	v1,87f0786c <spiFlash_waitReady+0x7c>
87f07878:	00000000 	nop
87f0787c:	ac450010 	sw	a1,16(v0)
87f07880:	8c460004 	lw	a2,4(v0)
87f07884:	30c60002 	andi	a2,a2,0x2
87f07888:	10c0fffd 	beqz	a2,87f07880 <spiFlash_waitReady+0x90>
87f0788c:	3c03b023 	lui	v1,0xb023
87f07890:	8c86000c 	lw	a2,12(a0)
87f07894:	30c60001 	andi	a2,a2,0x1
87f07898:	14c0fff4 	bnez	a2,87f0786c <spiFlash_waitReady+0x7c>
87f0789c:	00000000 	nop
87f078a0:	8c620000 	lw	v0,0(v1)
87f078a4:	03c0e821 	move	sp,s8
87f078a8:	34428000 	ori	v0,v0,0x8000
87f078ac:	ac620000 	sw	v0,0(v1)
87f078b0:	8fbe0004 	lw	s8,4(sp)
87f078b4:	03e00008 	jr	ra
87f078b8:	27bd0008 	addiu	sp,sp,8

Disassembly of section .text.flash_close:

87f078bc <flash_close>:
87f078bc:	27bdfff8 	addiu	sp,sp,-8
87f078c0:	3c02b002 	lui	v0,0xb002
87f078c4:	afbe0004 	sw	s8,4(sp)
87f078c8:	8c440064 	lw	a0,100(v0)
87f078cc:	2403ffbf 	li	v1,-65
87f078d0:	00831824 	and	v1,a0,v1
87f078d4:	ac430064 	sw	v1,100(v0)
87f078d8:	3c02b001 	lui	v0,0xb001
87f078dc:	03a0f021 	move	s8,sp
87f078e0:	8c440004 	lw	a0,4(v0)
87f078e4:	2403dffd 	li	v1,-8195
87f078e8:	03c0e821 	move	sp,s8
87f078ec:	00831824 	and	v1,a0,v1
87f078f0:	ac430004 	sw	v1,4(v0)
87f078f4:	8fbe0004 	lw	s8,4(sp)
87f078f8:	03e00008 	jr	ra
87f078fc:	27bd0008 	addiu	sp,sp,8

Disassembly of section .text.flash_getBlockSize:

87f07900 <flash_getBlockSize>:
87f07900:	27bdfff8 	addiu	sp,sp,-8
87f07904:	24021000 	li	v0,4096
87f07908:	afbe0004 	sw	s8,4(sp)
87f0790c:	03a0f021 	move	s8,sp
87f07910:	03c0e821 	move	sp,s8
87f07914:	8fbe0004 	lw	s8,4(sp)
87f07918:	03e00008 	jr	ra
87f0791c:	27bd0008 	addiu	sp,sp,8

Disassembly of section .text.flash_setReservedBadBlockNumber:

87f07920 <flash_setReservedBadBlockNumber>:
87f07920:	27bdfff8 	addiu	sp,sp,-8
87f07924:	afbe0004 	sw	s8,4(sp)
87f07928:	03a0f021 	move	s8,sp
87f0792c:	03c0e821 	move	sp,s8
87f07930:	8fbe0004 	lw	s8,4(sp)
87f07934:	03e00008 	jr	ra
87f07938:	27bd0008 	addiu	sp,sp,8

Disassembly of section .text.flash_getTotalSize:

87f0793c <flash_getTotalSize>:
87f0793c:	27bdfff8 	addiu	sp,sp,-8
87f07940:	3c0287f1 	lui	v0,0x87f1
87f07944:	afbe0004 	sw	s8,4(sp)
87f07948:	03a0f021 	move	s8,sp
87f0794c:	03c0e821 	move	sp,s8
87f07950:	8c428ff4 	lw	v0,-28684(v0)
87f07954:	8fbe0004 	lw	s8,4(sp)
87f07958:	03e00008 	jr	ra
87f0795c:	27bd0008 	addiu	sp,sp,8

Disassembly of section .text.flash_installAccessCB:

87f07960 <flash_installAccessCB>:
87f07960:	27bdfff8 	addiu	sp,sp,-8
87f07964:	3c0287f1 	lui	v0,0x87f1
87f07968:	afbe0004 	sw	s8,4(sp)
87f0796c:	03a0f021 	move	s8,sp
87f07970:	03c0e821 	move	sp,s8
87f07974:	ac448ff0 	sw	a0,-28688(v0)
87f07978:	8fbe0004 	lw	s8,4(sp)
87f0797c:	03e00008 	jr	ra
87f07980:	27bd0008 	addiu	sp,sp,8

Disassembly of section .text.flash_installIdentifyCB:

87f07984 <flash_installIdentifyCB>:
87f07984:	27bdfff8 	addiu	sp,sp,-8
87f07988:	3c0287f1 	lui	v0,0x87f1
87f0798c:	afbe0004 	sw	s8,4(sp)
87f07990:	03a0f021 	move	s8,sp
87f07994:	03c0e821 	move	sp,s8
87f07998:	ac448fec 	sw	a0,-28692(v0)
87f0799c:	8fbe0004 	lw	s8,4(sp)
87f079a0:	03e00008 	jr	ra
87f079a4:	27bd0008 	addiu	sp,sp,8

Disassembly of section .text.spi_writeReadData:

87f079a8 <spi_writeReadData>:
87f079a8:	27bdffd0 	addiu	sp,sp,-48
87f079ac:	240201ff 	li	v0,511
87f079b0:	afb10020 	sw	s1,32(sp)
87f079b4:	3c11b023 	lui	s1,0xb023
87f079b8:	afbe0028 	sw	s8,40(sp)
87f079bc:	afb20024 	sw	s2,36(sp)
87f079c0:	afb0001c 	sw	s0,28(sp)
87f079c4:	afbf002c 	sw	ra,44(sp)
87f079c8:	ae220004 	sw	v0,4(s1)
87f079cc:	00a08021 	move	s0,a1
87f079d0:	8e250000 	lw	a1,0(s1)
87f079d4:	8e220018 	lw	v0,24(s1)
87f079d8:	2403feff 	li	v1,-257
87f079dc:	00a31824 	and	v1,a1,v1
87f079e0:	34420003 	ori	v0,v0,0x3
87f079e4:	ae230000 	sw	v1,0(s1)
87f079e8:	03a0f021 	move	s8,sp
87f079ec:	ae220018 	sw	v0,24(s1)
87f079f0:	1200000d 	beqz	s0,87f07a28 <spi_writeReadData+0x80>
87f079f4:	00049080 	sll	s2,a0,0x2
87f079f8:	02002021 	move	a0,s0
87f079fc:	0dfc1aed 	jal	87f06bb4 <CPUflushWriteCache>
87f07a00:	02402821 	move	a1,s2
87f07a04:	ae320020 	sw	s2,32(s1)
87f07a08:	ae300024 	sw	s0,36(s1)
87f07a0c:	8e230000 	lw	v1,0(s1)
87f07a10:	3c02ffdf 	lui	v0,0xffdf
87f07a14:	3442ffff 	ori	v0,v0,0xffff
87f07a18:	00621024 	and	v0,v1,v0
87f07a1c:	3c030020 	lui	v1,0x20
87f07a20:	09fc1e95 	j	87f07a54 <spi_writeReadData+0xac>
87f07a24:	00431025 	or	v0,v0,v1
87f07a28:	00c02021 	move	a0,a2
87f07a2c:	02402821 	move	a1,s2
87f07a30:	0dfc1b1e 	jal	87f06c78 <CPUflushReadCache>
87f07a34:	afc60010 	sw	a2,16(s8)
87f07a38:	ae320020 	sw	s2,32(s1)
87f07a3c:	8fc60010 	lw	a2,16(s8)
87f07a40:	3c02ffdf 	lui	v0,0xffdf
87f07a44:	ae260024 	sw	a2,36(s1)
87f07a48:	8e230000 	lw	v1,0(s1)
87f07a4c:	3442ffff 	ori	v0,v0,0xffff
87f07a50:	00621024 	and	v0,v1,v0
87f07a54:	ae220000 	sw	v0,0(s1)
87f07a58:	24020001 	li	v0,1
87f07a5c:	ae22001c 	sw	v0,28(s1)
87f07a60:	3c03b023 	lui	v1,0xb023
87f07a64:	8c640004 	lw	a0,4(v1)
87f07a68:	30840040 	andi	a0,a0,0x40
87f07a6c:	1080fffd 	beqz	a0,87f07a64 <spi_writeReadData+0xbc>
87f07a70:	3c02b023 	lui	v0,0xb023
87f07a74:	240301ff 	li	v1,511
87f07a78:	ac430004 	sw	v1,4(v0)
87f07a7c:	8c420004 	lw	v0,4(v0)
87f07a80:	30420002 	andi	v0,v0,0x2
87f07a84:	50400005 	beqzl	v0,87f07a9c <spi_writeReadData+0xf4>
87f07a88:	03c0e821 	move	sp,s8
87f07a8c:	3c0487f1 	lui	a0,0x87f1
87f07a90:	0dfc1b4a 	jal	87f06d28 <fLib_PutSerialStr>
87f07a94:	24848f14 	addiu	a0,a0,-28908
87f07a98:	03c0e821 	move	sp,s8
87f07a9c:	24020001 	li	v0,1
87f07aa0:	8fbf002c 	lw	ra,44(sp)
87f07aa4:	8fbe0028 	lw	s8,40(sp)
87f07aa8:	8fb20024 	lw	s2,36(sp)
87f07aac:	8fb10020 	lw	s1,32(sp)
87f07ab0:	8fb0001c 	lw	s0,28(sp)
87f07ab4:	03e00008 	jr	ra
87f07ab8:	27bd0030 	addiu	sp,sp,48

Disassembly of section .text.flash_writeSectors:

87f07abc <flash_writeSectors>:
87f07abc:	3c0287f1 	lui	v0,0x87f1
87f07ac0:	27bdffb8 	addiu	sp,sp,-72
87f07ac4:	8c428ffc 	lw	v0,-28676(v0)
87f07ac8:	afbe0040 	sw	s8,64(sp)
87f07acc:	afb20028 	sw	s2,40(sp)
87f07ad0:	afb10024 	sw	s1,36(sp)
87f07ad4:	afb00020 	sw	s0,32(sp)
87f07ad8:	afbf0044 	sw	ra,68(sp)
87f07adc:	afb7003c 	sw	s7,60(sp)
87f07ae0:	afb60038 	sw	s6,56(sp)
87f07ae4:	afb50034 	sw	s5,52(sp)
87f07ae8:	afb40030 	sw	s4,48(sp)
87f07aec:	afb3002c 	sw	s3,44(sp)
87f07af0:	03a0f021 	move	s8,sp
87f07af4:	00a09021 	move	s2,a1
87f07af8:	00c08821 	move	s1,a2
87f07afc:	1040001c 	beqz	v0,87f07b70 <flash_writeSectors+0xb4>
87f07b00:	00048300 	sll	s0,a0,0xc
87f07b04:	3c02b023 	lui	v0,0xb023
87f07b08:	3c03ffff 	lui	v1,0xffff
87f07b0c:	8c440000 	lw	a0,0(v0)
87f07b10:	34637fff 	ori	v1,v1,0x7fff
87f07b14:	00831824 	and	v1,a0,v1
87f07b18:	ac430000 	sw	v1,0(v0)
87f07b1c:	8c440000 	lw	a0,0(v0)
87f07b20:	2403feff 	li	v1,-257
87f07b24:	8c450018 	lw	a1,24(v0)
87f07b28:	00832024 	and	a0,a0,v1
87f07b2c:	2403fffc 	li	v1,-4
87f07b30:	00a31824 	and	v1,a1,v1
87f07b34:	ac440000 	sw	a0,0(v0)
87f07b38:	ac430018 	sw	v1,24(v0)
87f07b3c:	8c430004 	lw	v1,4(v0)
87f07b40:	30630001 	andi	v1,v1,0x1
87f07b44:	1060fffd 	beqz	v1,87f07b3c <flash_writeSectors+0x80>
87f07b48:	24030050 	li	v1,80
87f07b4c:	3c02b023 	lui	v0,0xb023
87f07b50:	ac430010 	sw	v1,16(v0)
87f07b54:	3c03b023 	lui	v1,0xb023
87f07b58:	8c640004 	lw	a0,4(v1)
87f07b5c:	30840002 	andi	a0,a0,0x2
87f07b60:	1080fffd 	beqz	a0,87f07b58 <flash_writeSectors+0x9c>
87f07b64:	3c02b023 	lui	v0,0xb023
87f07b68:	09fc1ef5 	j	87f07bd4 <flash_writeSectors+0x118>
87f07b6c:	00000000 	nop
87f07b70:	3c02b023 	lui	v0,0xb023
87f07b74:	3c03ffff 	lui	v1,0xffff
87f07b78:	8c440000 	lw	a0,0(v0)
87f07b7c:	34637fff 	ori	v1,v1,0x7fff
87f07b80:	00831824 	and	v1,a0,v1
87f07b84:	ac430000 	sw	v1,0(v0)
87f07b88:	8c440000 	lw	a0,0(v0)
87f07b8c:	2403feff 	li	v1,-257
87f07b90:	8c450018 	lw	a1,24(v0)
87f07b94:	00832024 	and	a0,a0,v1
87f07b98:	2403fffc 	li	v1,-4
87f07b9c:	00a31824 	and	v1,a1,v1
87f07ba0:	ac440000 	sw	a0,0(v0)
87f07ba4:	ac430018 	sw	v1,24(v0)
87f07ba8:	8c430004 	lw	v1,4(v0)
87f07bac:	30630001 	andi	v1,v1,0x1
87f07bb0:	1060fffd 	beqz	v1,87f07ba8 <flash_writeSectors+0xec>
87f07bb4:	24030006 	li	v1,6
87f07bb8:	3c02b023 	lui	v0,0xb023
87f07bbc:	ac430010 	sw	v1,16(v0)
87f07bc0:	3c03b023 	lui	v1,0xb023
87f07bc4:	8c640004 	lw	a0,4(v1)
87f07bc8:	30840002 	andi	a0,a0,0x2
87f07bcc:	1080fffd 	beqz	a0,87f07bc4 <flash_writeSectors+0x108>
87f07bd0:	3c02b023 	lui	v0,0xb023
87f07bd4:	8c43000c 	lw	v1,12(v0)
87f07bd8:	8c430000 	lw	v1,0(v0)
87f07bdc:	34638000 	ori	v1,v1,0x8000
87f07be0:	ac430000 	sw	v1,0(v0)
87f07be4:	3c02b023 	lui	v0,0xb023
87f07be8:	3c03ffff 	lui	v1,0xffff
87f07bec:	8c440000 	lw	a0,0(v0)
87f07bf0:	34637fff 	ori	v1,v1,0x7fff
87f07bf4:	00831824 	and	v1,a0,v1
87f07bf8:	ac430000 	sw	v1,0(v0)
87f07bfc:	8c440000 	lw	a0,0(v0)
87f07c00:	8c450018 	lw	a1,24(v0)
87f07c04:	2403fffc 	li	v1,-4
87f07c08:	34840100 	ori	a0,a0,0x100
87f07c0c:	00a31824 	and	v1,a1,v1
87f07c10:	ac440000 	sw	a0,0(v0)
87f07c14:	ac430018 	sw	v1,24(v0)
87f07c18:	8c430004 	lw	v1,4(v0)
87f07c1c:	30630001 	andi	v1,v1,0x1
87f07c20:	1060fffd 	beqz	v1,87f07c18 <flash_writeSectors+0x15c>
87f07c24:	24030100 	li	v1,256
87f07c28:	3c02b023 	lui	v0,0xb023
87f07c2c:	ac430010 	sw	v1,16(v0)
87f07c30:	3c03b023 	lui	v1,0xb023
87f07c34:	8c640004 	lw	a0,4(v1)
87f07c38:	30840002 	andi	a0,a0,0x2
87f07c3c:	1080fffd 	beqz	a0,87f07c34 <flash_writeSectors+0x178>
87f07c40:	3c02b023 	lui	v0,0xb023
87f07c44:	8c43000c 	lw	v1,12(v0)
87f07c48:	8c430000 	lw	v1,0(v0)
87f07c4c:	0250a821 	addu	s5,s2,s0
87f07c50:	34638000 	ori	v1,v1,0x8000
87f07c54:	ac430000 	sw	v1,0(v0)
87f07c58:	0dfc1dfc 	jal	87f077f0 <spiFlash_waitReady>
87f07c5c:	00000000 	nop
87f07c60:	00151402 	srl	v0,s5,0x10
87f07c64:	00021400 	sll	v0,v0,0x10
87f07c68:	3203ffff 	andi	v1,s0,0xffff
87f07c6c:	afc20010 	sw	v0,16(s8)
87f07c70:	10600063 	beqz	v1,87f07e00 <flash_writeSectors+0x344>
87f07c74:	02001021 	move	v0,s0
87f07c78:	3402ffff 	li	v0,0xffff
87f07c7c:	02021021 	addu	v0,s0,v0
87f07c80:	00021402 	srl	v0,v0,0x10
87f07c84:	00021400 	sll	v0,v0,0x10
87f07c88:	0000a021 	move	s4,zero
87f07c8c:	09fc1f32 	j	87f07cc8 <flash_writeSectors+0x20c>
87f07c90:	3c1387f1 	lui	s3,0x87f1
87f07c94:	0dfc1db6 	jal	87f076d8 <spiFlash_eraseSector>
87f07c98:	afc20014 	sw	v0,20(s8)
87f07c9c:	0dfc1b3b 	jal	87f06cec <fLib_PutSerialChar>
87f07ca0:	24040065 	li	a0,101
87f07ca4:	0dfc1dfc 	jal	87f077f0 <spiFlash_waitReady>
87f07ca8:	00000000 	nop
87f07cac:	8e638ff0 	lw	v1,-28688(s3)
87f07cb0:	10600004 	beqz	v1,87f07cc4 <flash_writeSectors+0x208>
87f07cb4:	8fc20014 	lw	v0,20(s8)
87f07cb8:	0060f809 	jalr	v1
87f07cbc:	00000000 	nop
87f07cc0:	8fc20014 	lw	v0,20(s8)
87f07cc4:	26941000 	addiu	s4,s4,4096
87f07cc8:	0282182b 	sltu	v1,s4,v0
87f07ccc:	1460fff1 	bnez	v1,87f07c94 <flash_writeSectors+0x1d8>
87f07cd0:	02902021 	addu	a0,s4,s0
87f07cd4:	09fc1f81 	j	87f07e04 <flash_writeSectors+0x348>
87f07cd8:	3c13ffff 	lui	s3,0xffff
87f07cdc:	8ca40000 	lw	a0,0(a1)
87f07ce0:	00932024 	and	a0,a0,s3
87f07ce4:	aca40000 	sw	a0,0(a1)
87f07ce8:	8ca60000 	lw	a2,0(a1)
87f07cec:	8ca40018 	lw	a0,24(a1)
87f07cf0:	00d43024 	and	a2,a2,s4
87f07cf4:	00962024 	and	a0,a0,s6
87f07cf8:	aca60000 	sw	a2,0(a1)
87f07cfc:	aca40018 	sw	a0,24(a1)
87f07d00:	8ca40004 	lw	a0,4(a1)
87f07d04:	30840001 	andi	a0,a0,0x1
87f07d08:	1080fffd 	beqz	a0,87f07d00 <flash_writeSectors+0x244>
87f07d0c:	00000000 	nop
87f07d10:	ac770010 	sw	s7,16(v1)
87f07d14:	8ca40004 	lw	a0,4(a1)
87f07d18:	30840002 	andi	a0,a0,0x2
87f07d1c:	1080fffd 	beqz	a0,87f07d14 <flash_writeSectors+0x258>
87f07d20:	00000000 	nop
87f07d24:	8c64000c 	lw	a0,12(v1)
87f07d28:	8c640000 	lw	a0,0(v1)
87f07d2c:	34848000 	ori	a0,a0,0x8000
87f07d30:	ac640000 	sw	a0,0(v1)
87f07d34:	8c640000 	lw	a0,0(v1)
87f07d38:	00932024 	and	a0,a0,s3
87f07d3c:	ac640000 	sw	a0,0(v1)
87f07d40:	8c660000 	lw	a2,0(v1)
87f07d44:	8c640018 	lw	a0,24(v1)
87f07d48:	00d43024 	and	a2,a2,s4
87f07d4c:	34840003 	ori	a0,a0,0x3
87f07d50:	ac660000 	sw	a2,0(v1)
87f07d54:	ac640018 	sw	a0,24(v1)
87f07d58:	8ca40004 	lw	a0,4(a1)
87f07d5c:	30840001 	andi	a0,a0,0x1
87f07d60:	1080fffd 	beqz	a0,87f07d58 <flash_writeSectors+0x29c>
87f07d64:	00023600 	sll	a2,v0,0x18
87f07d68:	3044ff00 	andi	a0,v0,0xff00
87f07d6c:	34c600d8 	ori	a2,a2,0xd8
87f07d70:	00042200 	sll	a0,a0,0x8
87f07d74:	3c0700ff 	lui	a3,0xff
87f07d78:	00c42025 	or	a0,a2,a0
87f07d7c:	00473024 	and	a2,v0,a3
87f07d80:	00063202 	srl	a2,a2,0x8
87f07d84:	00862025 	or	a0,a0,a2
87f07d88:	ac640010 	sw	a0,16(v1)
87f07d8c:	8ca40004 	lw	a0,4(a1)
87f07d90:	30840002 	andi	a0,a0,0x2
87f07d94:	1080fffd 	beqz	a0,87f07d8c <flash_writeSectors+0x2d0>
87f07d98:	00000000 	nop
87f07d9c:	8c64000c 	lw	a0,12(v1)
87f07da0:	8c640000 	lw	a0,0(v1)
87f07da4:	34848000 	ori	a0,a0,0x8000
87f07da8:	ac640000 	sw	a0,0(v1)
87f07dac:	24040045 	li	a0,69
87f07db0:	afc20014 	sw	v0,20(s8)
87f07db4:	afc3001c 	sw	v1,28(s8)
87f07db8:	0dfc1b3b 	jal	87f06cec <fLib_PutSerialChar>
87f07dbc:	afc50018 	sw	a1,24(s8)
87f07dc0:	0dfc1dfc 	jal	87f077f0 <spiFlash_waitReady>
87f07dc4:	00000000 	nop
87f07dc8:	3c0687f1 	lui	a2,0x87f1
87f07dcc:	8fc20014 	lw	v0,20(s8)
87f07dd0:	8cc48ff0 	lw	a0,-28688(a2)
87f07dd4:	8fc3001c 	lw	v1,28(s8)
87f07dd8:	10800006 	beqz	a0,87f07df4 <flash_writeSectors+0x338>
87f07ddc:	8fc50018 	lw	a1,24(s8)
87f07de0:	0080f809 	jalr	a0
87f07de4:	00000000 	nop
87f07de8:	8fc50018 	lw	a1,24(s8)
87f07dec:	8fc3001c 	lw	v1,28(s8)
87f07df0:	8fc20014 	lw	v0,20(s8)
87f07df4:	3c070001 	lui	a3,0x1
87f07df8:	09fc1f87 	j	87f07e1c <flash_writeSectors+0x360>
87f07dfc:	00471021 	addu	v0,v0,a3
87f07e00:	3c13ffff 	lui	s3,0xffff
87f07e04:	3c05b023 	lui	a1,0xb023
87f07e08:	36737fff 	ori	s3,s3,0x7fff
87f07e0c:	2414feff 	li	s4,-257
87f07e10:	2416fffc 	li	s6,-4
87f07e14:	3c03b023 	lui	v1,0xb023
87f07e18:	24170006 	li	s7,6
87f07e1c:	8fc60010 	lw	a2,16(s8)
87f07e20:	0046202b 	sltu	a0,v0,a2
87f07e24:	1480ffad 	bnez	a0,87f07cdc <flash_writeSectors+0x220>
87f07e28:	00000000 	nop
87f07e2c:	09fc1f9a 	j	87f07e68 <flash_writeSectors+0x3ac>
87f07e30:	3c1387f1 	lui	s3,0x87f1
87f07e34:	0dfc1db6 	jal	87f076d8 <spiFlash_eraseSector>
87f07e38:	afc20014 	sw	v0,20(s8)
87f07e3c:	0dfc1b3b 	jal	87f06cec <fLib_PutSerialChar>
87f07e40:	24040065 	li	a0,101
87f07e44:	0dfc1dfc 	jal	87f077f0 <spiFlash_waitReady>
87f07e48:	00000000 	nop
87f07e4c:	8e638ff0 	lw	v1,-28688(s3)
87f07e50:	10600004 	beqz	v1,87f07e64 <flash_writeSectors+0x3a8>
87f07e54:	8fc20014 	lw	v0,20(s8)
87f07e58:	0060f809 	jalr	v1
87f07e5c:	00000000 	nop
87f07e60:	8fc20014 	lw	v0,20(s8)
87f07e64:	24421000 	addiu	v0,v0,4096
87f07e68:	0055182b 	sltu	v1,v0,s5
87f07e6c:	1460fff1 	bnez	v1,87f07e34 <flash_writeSectors+0x378>
87f07e70:	00402021 	move	a0,v0
87f07e74:	3c0287f1 	lui	v0,0x87f1
87f07e78:	8c438ff8 	lw	v1,-28680(v0)
87f07e7c:	24020001 	li	v0,1
87f07e80:	10620007 	beq	v1,v0,87f07ea0 <flash_writeSectors+0x3e4>
87f07e84:	3c13ffff 	lui	s3,0xffff
87f07e88:	0000b021 	move	s6,zero
87f07e8c:	3c15b023 	lui	s5,0xb023
87f07e90:	36737fff 	ori	s3,s3,0x7fff
87f07e94:	2417feff 	li	s7,-257
87f07e98:	09fc207f 	j	87f081fc <flash_writeSectors+0x740>
87f07e9c:	3c14b023 	lui	s4,0xb023
87f07ea0:	3c02b023 	lui	v0,0xb023
87f07ea4:	3c03ffff 	lui	v1,0xffff
87f07ea8:	8c440000 	lw	a0,0(v0)
87f07eac:	34637fff 	ori	v1,v1,0x7fff
87f07eb0:	00831824 	and	v1,a0,v1
87f07eb4:	ac430000 	sw	v1,0(v0)
87f07eb8:	8c440000 	lw	a0,0(v0)
87f07ebc:	2403feff 	li	v1,-257
87f07ec0:	8c450018 	lw	a1,24(v0)
87f07ec4:	00832024 	and	a0,a0,v1
87f07ec8:	2403fffc 	li	v1,-4
87f07ecc:	00a31824 	and	v1,a1,v1
87f07ed0:	ac440000 	sw	a0,0(v0)
87f07ed4:	ac430018 	sw	v1,24(v0)
87f07ed8:	8c430004 	lw	v1,4(v0)
87f07edc:	30630001 	andi	v1,v1,0x1
87f07ee0:	1060fffd 	beqz	v1,87f07ed8 <flash_writeSectors+0x41c>
87f07ee4:	24030006 	li	v1,6
87f07ee8:	3c02b023 	lui	v0,0xb023
87f07eec:	ac430010 	sw	v1,16(v0)
87f07ef0:	3c03b023 	lui	v1,0xb023
87f07ef4:	8c640004 	lw	a0,4(v1)
87f07ef8:	30840002 	andi	a0,a0,0x2
87f07efc:	1080fffd 	beqz	a0,87f07ef4 <flash_writeSectors+0x438>
87f07f00:	3c02b023 	lui	v0,0xb023
87f07f04:	8c43000c 	lw	v1,12(v0)
87f07f08:	8c430000 	lw	v1,0(v0)
87f07f0c:	34638000 	ori	v1,v1,0x8000
87f07f10:	ac430000 	sw	v1,0(v0)
87f07f14:	8c440000 	lw	a0,0(v0)
87f07f18:	3c03ffff 	lui	v1,0xffff
87f07f1c:	34637fff 	ori	v1,v1,0x7fff
87f07f20:	00831824 	and	v1,a0,v1
87f07f24:	ac430000 	sw	v1,0(v0)
87f07f28:	8c450000 	lw	a1,0(v0)
87f07f2c:	8c430018 	lw	v1,24(v0)
87f07f30:	2404feff 	li	a0,-257
87f07f34:	00a42024 	and	a0,a1,a0
87f07f38:	34630003 	ori	v1,v1,0x3
87f07f3c:	ac440000 	sw	a0,0(v0)
87f07f40:	ac430018 	sw	v1,24(v0)
87f07f44:	8c430004 	lw	v1,4(v0)
87f07f48:	30630001 	andi	v1,v1,0x1
87f07f4c:	1060fffd 	beqz	v1,87f07f44 <flash_writeSectors+0x488>
87f07f50:	3c03b023 	lui	v1,0xb023
87f07f54:	3202ff00 	andi	v0,s0,0xff00
87f07f58:	00021200 	sll	v0,v0,0x8
87f07f5c:	00108202 	srl	s0,s0,0x8
87f07f60:	344200ad 	ori	v0,v0,0xad
87f07f64:	3210ff00 	andi	s0,s0,0xff00
87f07f68:	00508025 	or	s0,v0,s0
87f07f6c:	3c02b023 	lui	v0,0xb023
87f07f70:	ac500010 	sw	s0,16(v0)
87f07f74:	8c640004 	lw	a0,4(v1)
87f07f78:	30840002 	andi	a0,a0,0x2
87f07f7c:	1080fffd 	beqz	a0,87f07f74 <flash_writeSectors+0x4b8>
87f07f80:	3c02b023 	lui	v0,0xb023
87f07f84:	8c43000c 	lw	v1,12(v0)
87f07f88:	8c440000 	lw	a0,0(v0)
87f07f8c:	8c450018 	lw	a1,24(v0)
87f07f90:	2403fffc 	li	v1,-4
87f07f94:	34840100 	ori	a0,a0,0x100
87f07f98:	00a31824 	and	v1,a1,v1
87f07f9c:	ac440000 	sw	a0,0(v0)
87f07fa0:	ac430018 	sw	v1,24(v0)
87f07fa4:	92230000 	lbu	v1,0(s1)
87f07fa8:	92220001 	lbu	v0,1(s1)
87f07fac:	3c04b023 	lui	a0,0xb023
87f07fb0:	8c850004 	lw	a1,4(a0)
87f07fb4:	30a50001 	andi	a1,a1,0x1
87f07fb8:	10a0fffd 	beqz	a1,87f07fb0 <flash_writeSectors+0x4f4>
87f07fbc:	00000000 	nop
87f07fc0:	00031a00 	sll	v1,v1,0x8
87f07fc4:	00431825 	or	v1,v0,v1
87f07fc8:	3c02b023 	lui	v0,0xb023
87f07fcc:	ac430010 	sw	v1,16(v0)
87f07fd0:	3c03b023 	lui	v1,0xb023
87f07fd4:	8c640004 	lw	a0,4(v1)
87f07fd8:	30840002 	andi	a0,a0,0x2
87f07fdc:	1080fffd 	beqz	a0,87f07fd4 <flash_writeSectors+0x518>
87f07fe0:	3c02b023 	lui	v0,0xb023
87f07fe4:	8c43000c 	lw	v1,12(v0)
87f07fe8:	8c430000 	lw	v1,0(v0)
87f07fec:	26520001 	addiu	s2,s2,1
87f07ff0:	34638000 	ori	v1,v1,0x8000
87f07ff4:	ac430000 	sw	v1,0(v0)
87f07ff8:	0dfc1dfc 	jal	87f077f0 <spiFlash_waitReady>
87f07ffc:	3c10ffff 	lui	s0,0xffff
87f08000:	2402fffe 	li	v0,-2
87f08004:	0242a024 	and	s4,s2,v0
87f08008:	24170002 	li	s7,2
87f0800c:	3c15b023 	lui	s5,0xb023
87f08010:	36107fff 	ori	s0,s0,0x7fff
87f08014:	2412feff 	li	s2,-257
87f08018:	2413fffc 	li	s3,-4
87f0801c:	09fc202e 	j	87f080b8 <flash_writeSectors+0x5fc>
87f08020:	3c16b023 	lui	s6,0xb023
87f08024:	8ea20000 	lw	v0,0(s5)
87f08028:	00501024 	and	v0,v0,s0
87f0802c:	aea20000 	sw	v0,0(s5)
87f08030:	8ea30000 	lw	v1,0(s5)
87f08034:	8ea20018 	lw	v0,24(s5)
87f08038:	00721824 	and	v1,v1,s2
87f0803c:	00531024 	and	v0,v0,s3
87f08040:	34420002 	ori	v0,v0,0x2
87f08044:	aea30000 	sw	v1,0(s5)
87f08048:	aea20018 	sw	v0,24(s5)
87f0804c:	92230002 	lbu	v1,2(s1)
87f08050:	92220003 	lbu	v0,3(s1)
87f08054:	8ea40004 	lw	a0,4(s5)
87f08058:	30840001 	andi	a0,a0,0x1
87f0805c:	1080fffd 	beqz	a0,87f08054 <flash_writeSectors+0x598>
87f08060:	00000000 	nop
87f08064:	00031a00 	sll	v1,v1,0x8
87f08068:	00021400 	sll	v0,v0,0x10
87f0806c:	00621025 	or	v0,v1,v0
87f08070:	344200ad 	ori	v0,v0,0xad
87f08074:	aec20010 	sw	v0,16(s6)
87f08078:	8ea20004 	lw	v0,4(s5)
87f0807c:	30420002 	andi	v0,v0,0x2
87f08080:	1040fffd 	beqz	v0,87f08078 <flash_writeSectors+0x5bc>
87f08084:	00000000 	nop
87f08088:	8ec2000c 	lw	v0,12(s6)
87f0808c:	8ec20000 	lw	v0,0(s6)
87f08090:	34428000 	ori	v0,v0,0x8000
87f08094:	aec20000 	sw	v0,0(s6)
87f08098:	32e20fff 	andi	v0,s7,0xfff
87f0809c:	14400003 	bnez	v0,87f080ac <flash_writeSectors+0x5f0>
87f080a0:	00000000 	nop
87f080a4:	0dfc1b3b 	jal	87f06cec <fLib_PutSerialChar>
87f080a8:	24040057 	li	a0,87
87f080ac:	0dfc1dfc 	jal	87f077f0 <spiFlash_waitReady>
87f080b0:	26f70002 	addiu	s7,s7,2
87f080b4:	26310002 	addiu	s1,s1,2
87f080b8:	02f4102b 	sltu	v0,s7,s4
87f080bc:	1440ffd9 	bnez	v0,87f08024 <flash_writeSectors+0x568>
87f080c0:	3c02b023 	lui	v0,0xb023
87f080c4:	09fc2083 	j	87f0820c <flash_writeSectors+0x750>
87f080c8:	3c03ffff 	lui	v1,0xffff
87f080cc:	8ea30000 	lw	v1,0(s5)
87f080d0:	2407fffc 	li	a3,-4
87f080d4:	00731824 	and	v1,v1,s3
87f080d8:	aea30000 	sw	v1,0(s5)
87f080dc:	8ea40000 	lw	a0,0(s5)
87f080e0:	8ea30018 	lw	v1,24(s5)
87f080e4:	00972024 	and	a0,a0,s7
87f080e8:	00671824 	and	v1,v1,a3
87f080ec:	aea40000 	sw	a0,0(s5)
87f080f0:	02d01021 	addu	v0,s6,s0
87f080f4:	aea30018 	sw	v1,24(s5)
87f080f8:	8ea30004 	lw	v1,4(s5)
87f080fc:	30630001 	andi	v1,v1,0x1
87f08100:	1060fffd 	beqz	v1,87f080f8 <flash_writeSectors+0x63c>
87f08104:	24030006 	li	v1,6
87f08108:	ae830010 	sw	v1,16(s4)
87f0810c:	8ea30004 	lw	v1,4(s5)
87f08110:	30630002 	andi	v1,v1,0x2
87f08114:	1060fffd 	beqz	v1,87f0810c <flash_writeSectors+0x650>
87f08118:	00000000 	nop
87f0811c:	8e83000c 	lw	v1,12(s4)
87f08120:	8e830000 	lw	v1,0(s4)
87f08124:	34638000 	ori	v1,v1,0x8000
87f08128:	ae830000 	sw	v1,0(s4)
87f0812c:	8e830000 	lw	v1,0(s4)
87f08130:	00731824 	and	v1,v1,s3
87f08134:	ae830000 	sw	v1,0(s4)
87f08138:	8e840000 	lw	a0,0(s4)
87f0813c:	8e830018 	lw	v1,24(s4)
87f08140:	00972024 	and	a0,a0,s7
87f08144:	34630003 	ori	v1,v1,0x3
87f08148:	ae840000 	sw	a0,0(s4)
87f0814c:	ae830018 	sw	v1,24(s4)
87f08150:	8ea30004 	lw	v1,4(s5)
87f08154:	30630001 	andi	v1,v1,0x1
87f08158:	1060fffd 	beqz	v1,87f08150 <flash_writeSectors+0x694>
87f0815c:	00022600 	sll	a0,v0,0x18
87f08160:	3043ff00 	andi	v1,v0,0xff00
87f08164:	34840002 	ori	a0,a0,0x2
87f08168:	00031a00 	sll	v1,v1,0x8
87f0816c:	00831825 	or	v1,a0,v1
87f08170:	3c0400ff 	lui	a0,0xff
87f08174:	00441024 	and	v0,v0,a0
87f08178:	00021202 	srl	v0,v0,0x8
87f0817c:	00621025 	or	v0,v1,v0
87f08180:	ae820010 	sw	v0,16(s4)
87f08184:	8ea20004 	lw	v0,4(s5)
87f08188:	30420002 	andi	v0,v0,0x2
87f0818c:	1040fffd 	beqz	v0,87f08184 <flash_writeSectors+0x6c8>
87f08190:	00162882 	srl	a1,s6,0x2
87f08194:	00052880 	sll	a1,a1,0x2
87f08198:	02252821 	addu	a1,s1,a1
87f0819c:	00003021 	move	a2,zero
87f081a0:	24040040 	li	a0,64
87f081a4:	8e82000c 	lw	v0,12(s4)
87f081a8:	0dfc1e6a 	jal	87f079a8 <spi_writeReadData>
87f081ac:	00000000 	nop
87f081b0:	8e820000 	lw	v0,0(s4)
87f081b4:	24040057 	li	a0,87
87f081b8:	34428000 	ori	v0,v0,0x8000
87f081bc:	ae820000 	sw	v0,0(s4)
87f081c0:	0dfc1b3b 	jal	87f06cec <fLib_PutSerialChar>
87f081c4:	00000000 	nop
87f081c8:	0dfc1dfc 	jal	87f077f0 <spiFlash_waitReady>
87f081cc:	00000000 	nop
87f081d0:	32c20fff 	andi	v0,s6,0xfff
87f081d4:	54400009 	bnezl	v0,87f081fc <flash_writeSectors+0x740>
87f081d8:	26d60100 	addiu	s6,s6,256
87f081dc:	0dfc1b3b 	jal	87f06cec <fLib_PutSerialChar>
87f081e0:	24040057 	li	a0,87
87f081e4:	3c0587f1 	lui	a1,0x87f1
87f081e8:	8ca28ff0 	lw	v0,-28688(a1)
87f081ec:	10400003 	beqz	v0,87f081fc <flash_writeSectors+0x740>
87f081f0:	26d60100 	addiu	s6,s6,256
87f081f4:	0040f809 	jalr	v0
87f081f8:	00000000 	nop
87f081fc:	02d2102b 	sltu	v0,s6,s2
87f08200:	1440ffb2 	bnez	v0,87f080cc <flash_writeSectors+0x610>
87f08204:	3c02b023 	lui	v0,0xb023
87f08208:	3c03ffff 	lui	v1,0xffff
87f0820c:	8c440000 	lw	a0,0(v0)
87f08210:	34637fff 	ori	v1,v1,0x7fff
87f08214:	00831824 	and	v1,a0,v1
87f08218:	ac430000 	sw	v1,0(v0)
87f0821c:	8c440000 	lw	a0,0(v0)
87f08220:	2403feff 	li	v1,-257
87f08224:	8c450018 	lw	a1,24(v0)
87f08228:	00832024 	and	a0,a0,v1
87f0822c:	2403fffc 	li	v1,-4
87f08230:	00a31824 	and	v1,a1,v1
87f08234:	ac440000 	sw	a0,0(v0)
87f08238:	ac430018 	sw	v1,24(v0)
87f0823c:	8c430004 	lw	v1,4(v0)
87f08240:	30630001 	andi	v1,v1,0x1
87f08244:	1060fffd 	beqz	v1,87f0823c <flash_writeSectors+0x780>
87f08248:	24030004 	li	v1,4
87f0824c:	3c02b023 	lui	v0,0xb023
87f08250:	ac430010 	sw	v1,16(v0)
87f08254:	3c03b023 	lui	v1,0xb023
87f08258:	8c640004 	lw	a0,4(v1)
87f0825c:	30840002 	andi	a0,a0,0x2
87f08260:	1080fffd 	beqz	a0,87f08258 <flash_writeSectors+0x79c>
87f08264:	3c02b023 	lui	v0,0xb023
87f08268:	8c43000c 	lw	v1,12(v0)
87f0826c:	8c430000 	lw	v1,0(v0)
87f08270:	03c0e821 	move	sp,s8
87f08274:	34638000 	ori	v1,v1,0x8000
87f08278:	ac430000 	sw	v1,0(v0)
87f0827c:	8fbf0044 	lw	ra,68(sp)
87f08280:	00001021 	move	v0,zero
87f08284:	8fbe0040 	lw	s8,64(sp)
87f08288:	8fb7003c 	lw	s7,60(sp)
87f0828c:	8fb60038 	lw	s6,56(sp)
87f08290:	8fb50034 	lw	s5,52(sp)
87f08294:	8fb40030 	lw	s4,48(sp)
87f08298:	8fb3002c 	lw	s3,44(sp)
87f0829c:	8fb20028 	lw	s2,40(sp)
87f082a0:	8fb10024 	lw	s1,36(sp)
87f082a4:	8fb00020 	lw	s0,32(sp)
87f082a8:	03e00008 	jr	ra
87f082ac:	27bd0048 	addiu	sp,sp,72

Disassembly of section .text.flash_readSectors:

87f082b0 <flash_readSectors>:
87f082b0:	27bdffc8 	addiu	sp,sp,-56
87f082b4:	3c0287f1 	lui	v0,0x87f1
87f082b8:	afb20020 	sw	s2,32(sp)
87f082bc:	8c528fe8 	lw	s2,-28696(v0)
87f082c0:	afbe0030 	sw	s8,48(sp)
87f082c4:	afb1001c 	sw	s1,28(sp)
87f082c8:	afb00018 	sw	s0,24(sp)
87f082cc:	afbf0034 	sw	ra,52(sp)
87f082d0:	afb5002c 	sw	s5,44(sp)
87f082d4:	afb40028 	sw	s4,40(sp)
87f082d8:	afb30024 	sw	s3,36(sp)
87f082dc:	03a0f021 	move	s8,sp
87f082e0:	00c08021 	move	s0,a2
87f082e4:	12400082 	beqz	s2,87f084f0 <flash_readSectors+0x240>
87f082e8:	00048b00 	sll	s1,a0,0xc
87f082ec:	3c0287f1 	lui	v0,0x87f1
87f082f0:	8c429000 	lw	v0,-28672(v0)
87f082f4:	5040007f 	beqzl	v0,87f084f4 <flash_readSectors+0x244>
87f082f8:	3c02b023 	lui	v0,0xb023
87f082fc:	3c03b023 	lui	v1,0xb023
87f08300:	3c04ffff 	lui	a0,0xffff
87f08304:	8c660000 	lw	a2,0(v1)
87f08308:	34847fff 	ori	a0,a0,0x7fff
87f0830c:	00c42024 	and	a0,a2,a0
87f08310:	ac640000 	sw	a0,0(v1)
87f08314:	8c660000 	lw	a2,0(v1)
87f08318:	8c670018 	lw	a3,24(v1)
87f0831c:	2404fffc 	li	a0,-4
87f08320:	34c60100 	ori	a2,a2,0x100
87f08324:	00e42024 	and	a0,a3,a0
87f08328:	ac660000 	sw	a2,0(v1)
87f0832c:	ac640018 	sw	a0,24(v1)
87f08330:	8c640004 	lw	a0,4(v1)
87f08334:	30840001 	andi	a0,a0,0x1
87f08338:	1080fffd 	beqz	a0,87f08330 <flash_readSectors+0x80>
87f0833c:	24040500 	li	a0,1280
87f08340:	3c03b023 	lui	v1,0xb023
87f08344:	ac640010 	sw	a0,16(v1)
87f08348:	3c04b023 	lui	a0,0xb023
87f0834c:	8c860004 	lw	a2,4(a0)
87f08350:	30c60002 	andi	a2,a2,0x2
87f08354:	10c0fffd 	beqz	a2,87f0834c <flash_readSectors+0x9c>
87f08358:	3c03b023 	lui	v1,0xb023
87f0835c:	8c64000c 	lw	a0,12(v1)
87f08360:	8c660000 	lw	a2,0(v1)
87f08364:	308400ff 	andi	a0,a0,0xff
87f08368:	34c68000 	ori	a2,a2,0x8000
87f0836c:	ac660000 	sw	a2,0(v1)
87f08370:	8c670000 	lw	a3,0(v1)
87f08374:	3c06ffff 	lui	a2,0xffff
87f08378:	34c67fff 	ori	a2,a2,0x7fff
87f0837c:	00e63024 	and	a2,a3,a2
87f08380:	ac660000 	sw	a2,0(v1)
87f08384:	8c670000 	lw	a3,0(v1)
87f08388:	2406feff 	li	a2,-257
87f0838c:	8c680018 	lw	t0,24(v1)
87f08390:	00e63824 	and	a3,a3,a2
87f08394:	2406fffc 	li	a2,-4
87f08398:	01063024 	and	a2,t0,a2
87f0839c:	ac670000 	sw	a3,0(v1)
87f083a0:	ac660018 	sw	a2,24(v1)
87f083a4:	8c660004 	lw	a2,4(v1)
87f083a8:	30c60001 	andi	a2,a2,0x1
87f083ac:	10c0fffd 	beqz	a2,87f083a4 <flash_readSectors+0xf4>
87f083b0:	24060006 	li	a2,6
87f083b4:	3c03b023 	lui	v1,0xb023
87f083b8:	ac660010 	sw	a2,16(v1)
87f083bc:	3c06b023 	lui	a2,0xb023
87f083c0:	8cc70004 	lw	a3,4(a2)
87f083c4:	30e70002 	andi	a3,a3,0x2
87f083c8:	10e0fffd 	beqz	a3,87f083c0 <flash_readSectors+0x110>
87f083cc:	3c03b023 	lui	v1,0xb023
87f083d0:	8c66000c 	lw	a2,12(v1)
87f083d4:	8c660000 	lw	a2,0(v1)
87f083d8:	34c68000 	ori	a2,a2,0x8000
87f083dc:	ac660000 	sw	a2,0(v1)
87f083e0:	8c670000 	lw	a3,0(v1)
87f083e4:	3c06ffff 	lui	a2,0xffff
87f083e8:	34c67fff 	ori	a2,a2,0x7fff
87f083ec:	00e63024 	and	a2,a3,a2
87f083f0:	ac660000 	sw	a2,0(v1)
87f083f4:	8c670000 	lw	a3,0(v1)
87f083f8:	8c680018 	lw	t0,24(v1)
87f083fc:	2406fffc 	li	a2,-4
87f08400:	01063024 	and	a2,t0,a2
87f08404:	34e70100 	ori	a3,a3,0x100
87f08408:	ac670000 	sw	a3,0(v1)
87f0840c:	ac660018 	sw	a2,24(v1)
87f08410:	24030001 	li	v1,1
87f08414:	1443000f 	bne	v0,v1,87f08454 <flash_readSectors+0x1a4>
87f08418:	3c06b023 	lui	a2,0xb023
87f0841c:	3c02b023 	lui	v0,0xb023
87f08420:	8c430004 	lw	v1,4(v0)
87f08424:	30630001 	andi	v1,v1,0x1
87f08428:	1060fffd 	beqz	v1,87f08420 <flash_readSectors+0x170>
87f0842c:	00000000 	nop
87f08430:	3c02b023 	lui	v0,0xb023
87f08434:	34840140 	ori	a0,a0,0x140
87f08438:	ac440010 	sw	a0,16(v0)
87f0843c:	8c430004 	lw	v1,4(v0)
87f08440:	30630002 	andi	v1,v1,0x2
87f08444:	1060fffd 	beqz	v1,87f0843c <flash_readSectors+0x18c>
87f08448:	00000000 	nop
87f0844c:	09fc2134 	j	87f084d0 <flash_readSectors+0x220>
87f08450:	3c02b023 	lui	v0,0xb023
87f08454:	8cc20004 	lw	v0,4(a2)
87f08458:	30420001 	andi	v0,v0,0x1
87f0845c:	1040fffd 	beqz	v0,87f08454 <flash_readSectors+0x1a4>
87f08460:	3c02b023 	lui	v0,0xb023
87f08464:	34840100 	ori	a0,a0,0x100
87f08468:	ac440010 	sw	a0,16(v0)
87f0846c:	3c03b023 	lui	v1,0xb023
87f08470:	8c640004 	lw	a0,4(v1)
87f08474:	30840002 	andi	a0,a0,0x2
87f08478:	1080fffd 	beqz	a0,87f08470 <flash_readSectors+0x1c0>
87f0847c:	3c02b023 	lui	v0,0xb023
87f08480:	8c43000c 	lw	v1,12(v0)
87f08484:	8c440000 	lw	a0,0(v0)
87f08488:	2403feff 	li	v1,-257
87f0848c:	8c460018 	lw	a2,24(v0)
87f08490:	00832024 	and	a0,a0,v1
87f08494:	2403fffc 	li	v1,-4
87f08498:	00c31824 	and	v1,a2,v1
87f0849c:	ac440000 	sw	a0,0(v0)
87f084a0:	ac430018 	sw	v1,24(v0)
87f084a4:	8c430004 	lw	v1,4(v0)
87f084a8:	30630001 	andi	v1,v1,0x1
87f084ac:	1060fffd 	beqz	v1,87f084a4 <flash_readSectors+0x1f4>
87f084b0:	24030002 	li	v1,2
87f084b4:	3c02b023 	lui	v0,0xb023
87f084b8:	ac430010 	sw	v1,16(v0)
87f084bc:	8c430004 	lw	v1,4(v0)
87f084c0:	30630002 	andi	v1,v1,0x2
87f084c4:	1060fffd 	beqz	v1,87f084bc <flash_readSectors+0x20c>
87f084c8:	00000000 	nop
87f084cc:	3c02b023 	lui	v0,0xb023
87f084d0:	8c42000c 	lw	v0,12(v0)
87f084d4:	3c02b023 	lui	v0,0xb023
87f084d8:	8c430000 	lw	v1,0(v0)
87f084dc:	34638000 	ori	v1,v1,0x8000
87f084e0:	ac430000 	sw	v1,0(v0)
87f084e4:	0dfc1dfc 	jal	87f077f0 <spiFlash_waitReady>
87f084e8:	afc50010 	sw	a1,16(s8)
87f084ec:	8fc50010 	lw	a1,16(s8)
87f084f0:	3c02b023 	lui	v0,0xb023
87f084f4:	3c03ffff 	lui	v1,0xffff
87f084f8:	8c440000 	lw	a0,0(v0)
87f084fc:	34637fff 	ori	v1,v1,0x7fff
87f08500:	00831824 	and	v1,a0,v1
87f08504:	ac430000 	sw	v1,0(v0)
87f08508:	5240001a 	beqzl	s2,87f08574 <flash_readSectors+0x2c4>
87f0850c:	3c02b023 	lui	v0,0xb023
87f08510:	3c0387f1 	lui	v1,0x87f1
87f08514:	8c639000 	lw	v1,-28672(v1)
87f08518:	50600016 	beqzl	v1,87f08574 <flash_readSectors+0x2c4>
87f0851c:	3c02b023 	lui	v0,0xb023
87f08520:	8c440000 	lw	a0,0(v0)
87f08524:	2403feff 	li	v1,-257
87f08528:	8c460018 	lw	a2,24(v0)
87f0852c:	00832024 	and	a0,a0,v1
87f08530:	2403fffc 	li	v1,-4
87f08534:	00c31824 	and	v1,a2,v1
87f08538:	ac440000 	sw	a0,0(v0)
87f0853c:	ac430018 	sw	v1,24(v0)
87f08540:	8c430004 	lw	v1,4(v0)
87f08544:	30630001 	andi	v1,v1,0x1
87f08548:	1060fffd 	beqz	v1,87f08540 <flash_readSectors+0x290>
87f0854c:	240300eb 	li	v1,235
87f08550:	3c02b023 	lui	v0,0xb023
87f08554:	ac430010 	sw	v1,16(v0)
87f08558:	8c430004 	lw	v1,4(v0)
87f0855c:	30630002 	andi	v1,v1,0x2
87f08560:	1060fffd 	beqz	v1,87f08558 <flash_readSectors+0x2a8>
87f08564:	00000000 	nop
87f08568:	3c02b023 	lui	v0,0xb023
87f0856c:	8c42000c 	lw	v0,12(v0)
87f08570:	3c02b023 	lui	v0,0xb023
87f08574:	2404feff 	li	a0,-257
87f08578:	8c460000 	lw	a2,0(v0)
87f0857c:	8c430018 	lw	v1,24(v0)
87f08580:	00c42024 	and	a0,a2,a0
87f08584:	34630003 	ori	v1,v1,0x3
87f08588:	ac440000 	sw	a0,0(v0)
87f0858c:	ac430018 	sw	v1,24(v0)
87f08590:	5240000e 	beqzl	s2,87f085cc <flash_readSectors+0x31c>
87f08594:	3c0287f1 	lui	v0,0x87f1
87f08598:	3c0387f1 	lui	v1,0x87f1
87f0859c:	8c639000 	lw	v1,-28672(v1)
87f085a0:	5060000a 	beqzl	v1,87f085cc <flash_readSectors+0x31c>
87f085a4:	3c0287f1 	lui	v0,0x87f1
87f085a8:	8c440018 	lw	a0,24(v0)
87f085ac:	3c03fffc 	lui	v1,0xfffc
87f085b0:	3463ffff 	ori	v1,v1,0xffff
87f085b4:	00831824 	and	v1,a0,v1
87f085b8:	3c040002 	lui	a0,0x2
87f085bc:	00641825 	or	v1,v1,a0
87f085c0:	ac430018 	sw	v1,24(v0)
87f085c4:	09fc217d 	j	87f085f4 <flash_readSectors+0x344>
87f085c8:	7e223c00 	ext	v0,s1,0x10,0x8
87f085cc:	24030001 	li	v1,1
87f085d0:	8c449004 	lw	a0,-28668(v0)
87f085d4:	14830004 	bne	a0,v1,87f085e8 <flash_readSectors+0x338>
87f085d8:	3222ff00 	andi	v0,s1,0xff00
87f085dc:	00021200 	sll	v0,v0,0x8
87f085e0:	09fc217c 	j	87f085f0 <flash_readSectors+0x340>
87f085e4:	3442003b 	ori	v0,v0,0x3b
87f085e8:	00021200 	sll	v0,v0,0x8
87f085ec:	34420003 	ori	v0,v0,0x3
87f085f0:	00118a02 	srl	s1,s1,0x8
87f085f4:	3231ff00 	andi	s1,s1,0xff00
87f085f8:	00518825 	or	s1,v0,s1
87f085fc:	3c02b023 	lui	v0,0xb023
87f08600:	8c430004 	lw	v1,4(v0)
87f08604:	30630001 	andi	v1,v1,0x1
87f08608:	1060fffd 	beqz	v1,87f08600 <flash_readSectors+0x350>
87f0860c:	3c03b023 	lui	v1,0xb023
87f08610:	3c02b023 	lui	v0,0xb023
87f08614:	ac510010 	sw	s1,16(v0)
87f08618:	8c640004 	lw	a0,4(v1)
87f0861c:	30840002 	andi	a0,a0,0x2
87f08620:	1080fffd 	beqz	a0,87f08618 <flash_readSectors+0x368>
87f08624:	3c02b023 	lui	v0,0xb023
87f08628:	8c43000c 	lw	v1,12(v0)
87f0862c:	5240001f 	beqzl	s2,87f086ac <flash_readSectors+0x3fc>
87f08630:	3c0287f1 	lui	v0,0x87f1
87f08634:	3c0387f1 	lui	v1,0x87f1
87f08638:	8c639000 	lw	v1,-28672(v1)
87f0863c:	5060001b 	beqzl	v1,87f086ac <flash_readSectors+0x3fc>
87f08640:	3c0287f1 	lui	v0,0x87f1
87f08644:	8c440018 	lw	a0,24(v0)
87f08648:	3c03fffb 	lui	v1,0xfffb
87f0864c:	3463ffff 	ori	v1,v1,0xffff
87f08650:	00831824 	and	v1,a0,v1
87f08654:	ac430018 	sw	v1,24(v0)
87f08658:	8c440000 	lw	a0,0(v0)
87f0865c:	8c460018 	lw	a2,24(v0)
87f08660:	2403fffc 	li	v1,-4
87f08664:	34840100 	ori	a0,a0,0x100
87f08668:	00c31824 	and	v1,a2,v1
87f0866c:	ac440000 	sw	a0,0(v0)
87f08670:	ac430018 	sw	v1,24(v0)
87f08674:	8c430004 	lw	v1,4(v0)
87f08678:	30630001 	andi	v1,v1,0x1
87f0867c:	1060fffd 	beqz	v1,87f08674 <flash_readSectors+0x3c4>
87f08680:	00000000 	nop
87f08684:	3c02b023 	lui	v0,0xb023
87f08688:	ac400010 	sw	zero,16(v0)
87f0868c:	8c430004 	lw	v1,4(v0)
87f08690:	30630002 	andi	v1,v1,0x2
87f08694:	1060fffd 	beqz	v1,87f0868c <flash_readSectors+0x3dc>
87f08698:	00000000 	nop
87f0869c:	3c02b023 	lui	v0,0xb023
87f086a0:	8c42000c 	lw	v0,12(v0)
87f086a4:	09fc21cf 	j	87f0873c <flash_readSectors+0x48c>
87f086a8:	3c02b023 	lui	v0,0xb023
87f086ac:	8c439004 	lw	v1,-28668(v0)
87f086b0:	24020001 	li	v0,1
87f086b4:	14620021 	bne	v1,v0,87f0873c <flash_readSectors+0x48c>
87f086b8:	3c02b023 	lui	v0,0xb023
87f086bc:	3c03fffb 	lui	v1,0xfffb
87f086c0:	8c440018 	lw	a0,24(v0)
87f086c4:	3463ffff 	ori	v1,v1,0xffff
87f086c8:	00831824 	and	v1,a0,v1
87f086cc:	ac430018 	sw	v1,24(v0)
87f086d0:	8c440000 	lw	a0,0(v0)
87f086d4:	2403feff 	li	v1,-257
87f086d8:	8c460018 	lw	a2,24(v0)
87f086dc:	00832024 	and	a0,a0,v1
87f086e0:	2403fffc 	li	v1,-4
87f086e4:	00c31824 	and	v1,a2,v1
87f086e8:	ac440000 	sw	a0,0(v0)
87f086ec:	ac430018 	sw	v1,24(v0)
87f086f0:	8c430004 	lw	v1,4(v0)
87f086f4:	30630001 	andi	v1,v1,0x1
87f086f8:	1060fffd 	beqz	v1,87f086f0 <flash_readSectors+0x440>
87f086fc:	3c03b023 	lui	v1,0xb023
87f08700:	3c02b023 	lui	v0,0xb023
87f08704:	ac400010 	sw	zero,16(v0)
87f08708:	8c640004 	lw	a0,4(v1)
87f0870c:	30840002 	andi	a0,a0,0x2
87f08710:	1080fffd 	beqz	a0,87f08708 <flash_readSectors+0x458>
87f08714:	3c02b023 	lui	v0,0xb023
87f08718:	8c43000c 	lw	v1,12(v0)
87f0871c:	8c440018 	lw	a0,24(v0)
87f08720:	3c03fffc 	lui	v1,0xfffc
87f08724:	3463ffff 	ori	v1,v1,0xffff
87f08728:	00831824 	and	v1,a0,v1
87f0872c:	3c040001 	lui	a0,0x1
87f08730:	00641825 	or	v1,v1,a0
87f08734:	ac430018 	sw	v1,24(v0)
87f08738:	3c02b023 	lui	v0,0xb023
87f0873c:	24b1000f 	addiu	s1,a1,15
87f08740:	8c450000 	lw	a1,0(v0)
87f08744:	8c430018 	lw	v1,24(v0)
87f08748:	2404feff 	li	a0,-257
87f0874c:	3c1400ff 	lui	s4,0xff
87f08750:	00118902 	srl	s1,s1,0x4
87f08754:	00a42024 	and	a0,a1,a0
87f08758:	34630003 	ori	v1,v1,0x3
87f0875c:	ac440000 	sw	a0,0(v0)
87f08760:	3695fffc 	ori	s5,s4,0xfffc
87f08764:	00118900 	sll	s1,s1,0x4
87f08768:	ac430018 	sw	v1,24(v0)
87f0876c:	00009021 	move	s2,zero
87f08770:	09fc21ec 	j	87f087b0 <flash_readSectors+0x500>
87f08774:	3694fffd 	ori	s4,s4,0xfffd
87f08778:	02a01021 	move	v0,s5
87f0877c:	0233100b 	movn	v0,s1,s3
87f08780:	24040052 	li	a0,82
87f08784:	0dfc1b3b 	jal	87f06cec <fLib_PutSerialChar>
87f08788:	00409821 	move	s3,v0
87f0878c:	00123082 	srl	a2,s2,0x2
87f08790:	26640003 	addiu	a0,s3,3
87f08794:	00063080 	sll	a2,a2,0x2
87f08798:	00042082 	srl	a0,a0,0x2
87f0879c:	00002821 	move	a1,zero
87f087a0:	0dfc1e6a 	jal	87f079a8 <spi_writeReadData>
87f087a4:	02063021 	addu	a2,s0,a2
87f087a8:	02539021 	addu	s2,s2,s3
87f087ac:	02338823 	subu	s1,s1,s3
87f087b0:	1620fff1 	bnez	s1,87f08778 <flash_readSectors+0x4c8>
87f087b4:	0234982b 	sltu	s3,s1,s4
87f087b8:	3c02b023 	lui	v0,0xb023
87f087bc:	03c0e821 	move	sp,s8
87f087c0:	8c430000 	lw	v1,0(v0)
87f087c4:	34638000 	ori	v1,v1,0x8000
87f087c8:	ac430000 	sw	v1,0(v0)
87f087cc:	8c440018 	lw	a0,24(v0)
87f087d0:	3c03fffc 	lui	v1,0xfffc
87f087d4:	3463ffff 	ori	v1,v1,0xffff
87f087d8:	00831824 	and	v1,a0,v1
87f087dc:	ac430018 	sw	v1,24(v0)
87f087e0:	8c440018 	lw	a0,24(v0)
87f087e4:	3c03fffb 	lui	v1,0xfffb
87f087e8:	3463ffff 	ori	v1,v1,0xffff
87f087ec:	00831824 	and	v1,a0,v1
87f087f0:	3c040004 	lui	a0,0x4
87f087f4:	00641825 	or	v1,v1,a0
87f087f8:	ac430018 	sw	v1,24(v0)
87f087fc:	8fbf0034 	lw	ra,52(sp)
87f08800:	00001021 	move	v0,zero
87f08804:	8fbe0030 	lw	s8,48(sp)
87f08808:	8fb5002c 	lw	s5,44(sp)
87f0880c:	8fb40028 	lw	s4,40(sp)
87f08810:	8fb30024 	lw	s3,36(sp)
87f08814:	8fb20020 	lw	s2,32(sp)
87f08818:	8fb1001c 	lw	s1,28(sp)
87f0881c:	8fb00018 	lw	s0,24(sp)
87f08820:	03e00008 	jr	ra
87f08824:	27bd0038 	addiu	sp,sp,56

Disassembly of section .text.flash_open:

87f08828 <flash_open>:
87f08828:	27bdffc0 	addiu	sp,sp,-64
87f0882c:	3c02b002 	lui	v0,0xb002
87f08830:	afbe0038 	sw	s8,56(sp)
87f08834:	afbf003c 	sw	ra,60(sp)
87f08838:	afb20034 	sw	s2,52(sp)
87f0883c:	afb10030 	sw	s1,48(sp)
87f08840:	afb0002c 	sw	s0,44(sp)
87f08844:	8c430064 	lw	v1,100(v0)
87f08848:	03a0f021 	move	s8,sp
87f0884c:	34630040 	ori	v1,v1,0x40
87f08850:	ac430064 	sw	v1,100(v0)
87f08854:	3c0287f1 	lui	v0,0x87f1
87f08858:	8c428fe8 	lw	v0,-28696(v0)
87f0885c:	10400003 	beqz	v0,87f0886c <flash_open+0x44>
87f08860:	24032002 	li	v1,8194
87f08864:	3c034000 	lui	v1,0x4000
87f08868:	34632002 	ori	v1,v1,0x2002
87f0886c:	3c02b001 	lui	v0,0xb001
87f08870:	2404ff00 	li	a0,-256
87f08874:	ac430004 	sw	v1,4(v0)
87f08878:	3c03b002 	lui	v1,0xb002
87f0887c:	3c0287f1 	lui	v0,0x87f1
87f08880:	8c660040 	lw	a2,64(v1)
87f08884:	8c428d4c 	lw	v0,-29364(v0)
87f08888:	00c42024 	and	a0,a2,a0
87f0888c:	304500ff 	andi	a1,v0,0xff
87f08890:	00a42025 	or	a0,a1,a0
87f08894:	ac640040 	sw	a0,64(v1)
87f08898:	24030013 	li	v1,19
87f0889c:	54430005 	bnel	v0,v1,87f088b4 <flash_open+0x8c>
87f088a0:	24030009 	li	v1,9
87f088a4:	3c02b023 	lui	v0,0xb023
87f088a8:	8c430000 	lw	v1,0(v0)
87f088ac:	09fc2237 	j	87f088dc <flash_open+0xb4>
87f088b0:	34630001 	ori	v1,v1,0x1
87f088b4:	14430005 	bne	v0,v1,87f088cc <flash_open+0xa4>
87f088b8:	3c02b023 	lui	v0,0xb023
87f088bc:	3c030001 	lui	v1,0x1
87f088c0:	8c440000 	lw	a0,0(v0)
87f088c4:	09fc2236 	j	87f088d8 <flash_open+0xb0>
87f088c8:	34630001 	ori	v1,v1,0x1
87f088cc:	3c030002 	lui	v1,0x2
87f088d0:	8c440000 	lw	a0,0(v0)
87f088d4:	34630001 	ori	v1,v1,0x1
87f088d8:	00831825 	or	v1,a0,v1
87f088dc:	ac430000 	sw	v1,0(v0)
87f088e0:	3c02b023 	lui	v0,0xb023
87f088e4:	3c03000c 	lui	v1,0xc
87f088e8:	8c440018 	lw	a0,24(v0)
87f088ec:	00831825 	or	v1,a0,v1
87f088f0:	ac430018 	sw	v1,24(v0)
87f088f4:	8c440000 	lw	a0,0(v0)
87f088f8:	3c03ffff 	lui	v1,0xffff
87f088fc:	34637fff 	ori	v1,v1,0x7fff
87f08900:	00831824 	and	v1,a0,v1
87f08904:	ac430000 	sw	v1,0(v0)
87f08908:	8c450000 	lw	a1,0(v0)
87f0890c:	8c430018 	lw	v1,24(v0)
87f08910:	2404feff 	li	a0,-257
87f08914:	00a42024 	and	a0,a1,a0
87f08918:	34630003 	ori	v1,v1,0x3
87f0891c:	ac440000 	sw	a0,0(v0)
87f08920:	ac430018 	sw	v1,24(v0)
87f08924:	8c430004 	lw	v1,4(v0)
87f08928:	30630001 	andi	v1,v1,0x1
87f0892c:	1060fffd 	beqz	v1,87f08924 <flash_open+0xfc>
87f08930:	2403009f 	li	v1,159
87f08934:	3c02b023 	lui	v0,0xb023
87f08938:	ac430010 	sw	v1,16(v0)
87f0893c:	3c03b023 	lui	v1,0xb023
87f08940:	8c640004 	lw	a0,4(v1)
87f08944:	30840002 	andi	a0,a0,0x2
87f08948:	1080fffd 	beqz	a0,87f08940 <flash_open+0x118>
87f0894c:	3c02b023 	lui	v0,0xb023
87f08950:	8c52000c 	lw	s2,12(v0)
87f08954:	8c430000 	lw	v1,0(v0)
87f08958:	7e503a00 	ext	s0,s2,0x8,0x8
87f0895c:	34638000 	ori	v1,v1,0x8000
87f08960:	ac430000 	sw	v1,0(v0)
87f08964:	3c0287f1 	lui	v0,0x87f1
87f08968:	7e513c00 	ext	s1,s2,0x10,0x8
87f0896c:	8c428fec 	lw	v0,-28692(v0)
87f08970:	1040001c 	beqz	v0,87f089e4 <flash_open+0x1bc>
87f08974:	00129602 	srl	s2,s2,0x18
87f08978:	afc00010 	sw	zero,16(s8)
87f0897c:	afc00014 	sw	zero,20(s8)
87f08980:	afc00018 	sw	zero,24(s8)
87f08984:	afc0001c 	sw	zero,28(s8)
87f08988:	afc00020 	sw	zero,32(s8)
87f0898c:	02002021 	move	a0,s0
87f08990:	02202821 	move	a1,s1
87f08994:	02403021 	move	a2,s2
87f08998:	0040f809 	jalr	v0
87f0899c:	27c70010 	addiu	a3,s8,16
87f089a0:	24030001 	li	v1,1
87f089a4:	14430010 	bne	v0,v1,87f089e8 <flash_open+0x1c0>
87f089a8:	240200c2 	li	v0,194
87f089ac:	8fc30010 	lw	v1,16(s8)
87f089b0:	3c0287f1 	lui	v0,0x87f1
87f089b4:	ac438ffc 	sw	v1,-28676(v0)
87f089b8:	8fc30014 	lw	v1,20(s8)
87f089bc:	3c0287f1 	lui	v0,0x87f1
87f089c0:	ac438ff8 	sw	v1,-28680(v0)
87f089c4:	8fc30018 	lw	v1,24(s8)
87f089c8:	3c0287f1 	lui	v0,0x87f1
87f089cc:	ac439004 	sw	v1,-28668(v0)
87f089d0:	8fc3001c 	lw	v1,28(s8)
87f089d4:	3c0287f1 	lui	v0,0x87f1
87f089d8:	ac439000 	sw	v1,-28672(v0)
87f089dc:	09fc22e7 	j	87f08b9c <flash_open+0x374>
87f089e0:	8fc30020 	lw	v1,32(s8)
87f089e4:	240200c2 	li	v0,194
87f089e8:	12020010 	beq	s0,v0,87f08a2c <flash_open+0x204>
87f089ec:	2e0200c3 	sltiu	v0,s0,195
87f089f0:	10400008 	beqz	v0,87f08a14 <flash_open+0x1ec>
87f089f4:	240200d5 	li	v0,213
87f089f8:	2402008c 	li	v0,140
87f089fc:	12020041 	beq	s0,v0,87f08b04 <flash_open+0x2dc>
87f08a00:	240200bf 	li	v0,191
87f08a04:	12020058 	beq	s0,v0,87f08b68 <flash_open+0x340>
87f08a08:	2402001c 	li	v0,28
87f08a0c:	09fc2289 	j	87f08a24 <flash_open+0x1fc>
87f08a10:	00000000 	nop
87f08a14:	12020005 	beq	s0,v0,87f08a2c <flash_open+0x204>
87f08a18:	240200ef 	li	v0,239
87f08a1c:	12020003 	beq	s0,v0,87f08a2c <flash_open+0x204>
87f08a20:	240200c8 	li	v0,200
87f08a24:	16020060 	bne	s0,v0,87f08ba8 <flash_open+0x380>
87f08a28:	00001021 	move	v0,zero
87f08a2c:	240200ef 	li	v0,239
87f08a30:	1602000b 	bne	s0,v0,87f08a60 <flash_open+0x238>
87f08a34:	2402001c 	li	v0,28
87f08a38:	24020030 	li	v0,48
87f08a3c:	1222001c 	beq	s1,v0,87f08ab0 <flash_open+0x288>
87f08a40:	3c0287f1 	lui	v0,0x87f1
87f08a44:	24020040 	li	v0,64
87f08a48:	5622002c 	bnel	s1,v0,87f08afc <flash_open+0x2d4>
87f08a4c:	3c0287f1 	lui	v0,0x87f1
87f08a50:	3c0287f1 	lui	v0,0x87f1
87f08a54:	24030002 	li	v1,2
87f08a58:	09fc22ab 	j	87f08aac <flash_open+0x284>
87f08a5c:	ac439000 	sw	v1,-28672(v0)
87f08a60:	1602000d 	bne	s0,v0,87f08a98 <flash_open+0x270>
87f08a64:	240200d5 	li	v0,213
87f08a68:	24020030 	li	v0,48
87f08a6c:	12220005 	beq	s1,v0,87f08a84 <flash_open+0x25c>
87f08a70:	3c0387f1 	lui	v1,0x87f1
87f08a74:	24020070 	li	v0,112
87f08a78:	56220020 	bnel	s1,v0,87f08afc <flash_open+0x2d4>
87f08a7c:	3c0287f1 	lui	v0,0x87f1
87f08a80:	3c0387f1 	lui	v1,0x87f1
87f08a84:	24020001 	li	v0,1
87f08a88:	ac629004 	sw	v0,-28668(v1)
87f08a8c:	3c0387f1 	lui	v1,0x87f1
87f08a90:	09fc22be 	j	87f08af8 <flash_open+0x2d0>
87f08a94:	ac629000 	sw	v0,-28672(v1)
87f08a98:	16020008 	bne	s0,v0,87f08abc <flash_open+0x294>
87f08a9c:	240200c8 	li	v0,200
87f08aa0:	24020030 	li	v0,48
87f08aa4:	56220015 	bnel	s1,v0,87f08afc <flash_open+0x2d4>
87f08aa8:	3c0287f1 	lui	v0,0x87f1
87f08aac:	3c0287f1 	lui	v0,0x87f1
87f08ab0:	24030001 	li	v1,1
87f08ab4:	09fc22be 	j	87f08af8 <flash_open+0x2d0>
87f08ab8:	ac439004 	sw	v1,-28668(v0)
87f08abc:	56020006 	bnel	s0,v0,87f08ad8 <flash_open+0x2b0>
87f08ac0:	240200c2 	li	v0,194
87f08ac4:	3c0287f1 	lui	v0,0x87f1
87f08ac8:	24030001 	li	v1,1
87f08acc:	ac439004 	sw	v1,-28668(v0)
87f08ad0:	09fc22bc 	j	87f08af0 <flash_open+0x2c8>
87f08ad4:	24030002 	li	v1,2
87f08ad8:	16020008 	bne	s0,v0,87f08afc <flash_open+0x2d4>
87f08adc:	3c0287f1 	lui	v0,0x87f1
87f08ae0:	24020020 	li	v0,32
87f08ae4:	56220005 	bnel	s1,v0,87f08afc <flash_open+0x2d4>
87f08ae8:	3c0287f1 	lui	v0,0x87f1
87f08aec:	24030001 	li	v1,1
87f08af0:	3c0287f1 	lui	v0,0x87f1
87f08af4:	ac439000 	sw	v1,-28672(v0)
87f08af8:	3c0287f1 	lui	v0,0x87f1
87f08afc:	09fc22d8 	j	87f08b60 <flash_open+0x338>
87f08b00:	ac408ffc 	sw	zero,-28676(v0)
87f08b04:	24020020 	li	v0,32
87f08b08:	16220008 	bne	s1,v0,87f08b2c <flash_open+0x304>
87f08b0c:	24020041 	li	v0,65
87f08b10:	24020016 	li	v0,22
87f08b14:	56420010 	bnel	s2,v0,87f08b58 <flash_open+0x330>
87f08b18:	3c0287f1 	lui	v0,0x87f1
87f08b1c:	3c0287f1 	lui	v0,0x87f1
87f08b20:	24030001 	li	v1,1
87f08b24:	09fc22d5 	j	87f08b54 <flash_open+0x32c>
87f08b28:	ac439004 	sw	v1,-28668(v0)
87f08b2c:	1622000a 	bne	s1,v0,87f08b58 <flash_open+0x330>
87f08b30:	3c0287f1 	lui	v0,0x87f1
87f08b34:	24020016 	li	v0,22
87f08b38:	56420007 	bnel	s2,v0,87f08b58 <flash_open+0x330>
87f08b3c:	3c0287f1 	lui	v0,0x87f1
87f08b40:	3c0387f1 	lui	v1,0x87f1
87f08b44:	24020001 	li	v0,1
87f08b48:	ac629004 	sw	v0,-28668(v1)
87f08b4c:	3c0387f1 	lui	v1,0x87f1
87f08b50:	ac629000 	sw	v0,-28672(v1)
87f08b54:	3c0287f1 	lui	v0,0x87f1
87f08b58:	24030001 	li	v1,1
87f08b5c:	ac438ffc 	sw	v1,-28676(v0)
87f08b60:	09fc22ea 	j	87f08ba8 <flash_open+0x380>
87f08b64:	24020001 	li	v0,1
87f08b68:	3c0387f1 	lui	v1,0x87f1
87f08b6c:	24020001 	li	v0,1
87f08b70:	ac628ffc 	sw	v0,-28676(v1)
87f08b74:	3c0387f1 	lui	v1,0x87f1
87f08b78:	ac628ff8 	sw	v0,-28680(v1)
87f08b7c:	24020041 	li	v0,65
87f08b80:	12420005 	beq	s2,v0,87f08b98 <flash_open+0x370>
87f08b84:	2402004a 	li	v0,74
87f08b88:	16420007 	bne	s2,v0,87f08ba8 <flash_open+0x380>
87f08b8c:	00001021 	move	v0,zero
87f08b90:	09fc22e7 	j	87f08b9c <flash_open+0x374>
87f08b94:	3c030040 	lui	v1,0x40
87f08b98:	3c030020 	lui	v1,0x20
87f08b9c:	3c0287f1 	lui	v0,0x87f1
87f08ba0:	09fc2317 	j	87f08c5c <flash_open+0x434>
87f08ba4:	ac438ff4 	sw	v1,-28684(v0)
87f08ba8:	3c0387f1 	lui	v1,0x87f1
87f08bac:	8c638ffc 	lw	v1,-28676(v1)
87f08bb0:	10600008 	beqz	v1,87f08bd4 <flash_open+0x3ac>
87f08bb4:	2e430015 	sltiu	v1,s2,21
87f08bb8:	24030015 	li	v1,21
87f08bbc:	16430005 	bne	s2,v1,87f08bd4 <flash_open+0x3ac>
87f08bc0:	2e430015 	sltiu	v1,s2,21
87f08bc4:	3c0387f1 	lui	v1,0x87f1
87f08bc8:	24040001 	li	a0,1
87f08bcc:	09fc22f7 	j	87f08bdc <flash_open+0x3b4>
87f08bd0:	ac648ff8 	sw	a0,-28680(v1)
87f08bd4:	14600004 	bnez	v1,87f08be8 <flash_open+0x3c0>
87f08bd8:	3c0487f1 	lui	a0,0x87f1
87f08bdc:	5440001b 	bnezl	v0,87f08c4c <flash_open+0x424>
87f08be0:	3c020010 	lui	v0,0x10
87f08be4:	3c0487f1 	lui	a0,0x87f1
87f08be8:	0dfc1b4a 	jal	87f06d28 <fLib_PutSerialStr>
87f08bec:	24848f24 	addiu	a0,a0,-28892
87f08bf0:	0dfc2320 	jal	87f08c80 <Dec2HexStr>
87f08bf4:	02002021 	move	a0,s0
87f08bf8:	0dfc1b4a 	jal	87f06d28 <fLib_PutSerialStr>
87f08bfc:	00402021 	move	a0,v0
87f08c00:	3c0487f1 	lui	a0,0x87f1
87f08c04:	0dfc1b4a 	jal	87f06d28 <fLib_PutSerialStr>
87f08c08:	24848f2c 	addiu	a0,a0,-28884
87f08c0c:	0dfc2320 	jal	87f08c80 <Dec2HexStr>
87f08c10:	02202021 	move	a0,s1
87f08c14:	0dfc1b4a 	jal	87f06d28 <fLib_PutSerialStr>
87f08c18:	00402021 	move	a0,v0
87f08c1c:	3c0487f1 	lui	a0,0x87f1
87f08c20:	0dfc1b4a 	jal	87f06d28 <fLib_PutSerialStr>
87f08c24:	24848f34 	addiu	a0,a0,-28876
87f08c28:	0dfc2320 	jal	87f08c80 <Dec2HexStr>
87f08c2c:	02402021 	move	a0,s2
87f08c30:	0dfc1b4a 	jal	87f06d28 <fLib_PutSerialStr>
87f08c34:	00402021 	move	a0,v0
87f08c38:	3c0487f1 	lui	a0,0x87f1
87f08c3c:	0dfc1b4a 	jal	87f06d28 <fLib_PutSerialStr>
87f08c40:	24848d94 	addiu	a0,a0,-29292
87f08c44:	09fc2318 	j	87f08c60 <flash_open+0x438>
87f08c48:	2402fff7 	li	v0,-9
87f08c4c:	2652ffec 	addiu	s2,s2,-20
87f08c50:	02429004 	sllv	s2,v0,s2
87f08c54:	3c0287f1 	lui	v0,0x87f1
87f08c58:	ac528ff4 	sw	s2,-28684(v0)
87f08c5c:	00001021 	move	v0,zero
87f08c60:	03c0e821 	move	sp,s8
87f08c64:	8fbf003c 	lw	ra,60(sp)
87f08c68:	8fbe0038 	lw	s8,56(sp)
87f08c6c:	8fb20034 	lw	s2,52(sp)
87f08c70:	8fb10030 	lw	s1,48(sp)
87f08c74:	8fb0002c 	lw	s0,44(sp)
87f08c78:	03e00008 	jr	ra
87f08c7c:	27bd0040 	addiu	sp,sp,64

Disassembly of section .text.Dec2HexStr:

87f08c80 <Dec2HexStr>:
87f08c80:	27bdfff8 	addiu	sp,sp,-8
87f08c84:	3c0287f1 	lui	v0,0x87f1
87f08c88:	afbe0004 	sw	s8,4(sp)
87f08c8c:	24429008 	addiu	v0,v0,-28664
87f08c90:	03a0f021 	move	s8,sp
87f08c94:	2403001c 	li	v1,28
87f08c98:	3c06f000 	lui	a2,0xf000
87f08c9c:	2407fffc 	li	a3,-4
87f08ca0:	00c42824 	and	a1,a2,a0
87f08ca4:	00652806 	srlv	a1,a1,v1
87f08ca8:	30a500ff 	andi	a1,a1,0xff
87f08cac:	2ca8000a 	sltiu	t0,a1,10
87f08cb0:	15000003 	bnez	t0,87f08cc0 <Dec2HexStr+0x40>
87f08cb4:	a0450000 	sb	a1,0(v0)
87f08cb8:	09fc2331 	j	87f08cc4 <Dec2HexStr+0x44>
87f08cbc:	24a50037 	addiu	a1,a1,55
87f08cc0:	24a50030 	addiu	a1,a1,48
87f08cc4:	2463fffc 	addiu	v1,v1,-4
87f08cc8:	a0450000 	sb	a1,0(v0)
87f08ccc:	10670003 	beq	v1,a3,87f08cdc <Dec2HexStr+0x5c>
87f08cd0:	24420001 	addiu	v0,v0,1
87f08cd4:	09fc2328 	j	87f08ca0 <Dec2HexStr+0x20>
87f08cd8:	00063102 	srl	a2,a2,0x4
87f08cdc:	03c0e821 	move	sp,s8
87f08ce0:	3c0287f1 	lui	v0,0x87f1
87f08ce4:	24429008 	addiu	v0,v0,-28664
87f08ce8:	8fbe0004 	lw	s8,4(sp)
87f08cec:	03e00008 	jr	ra
87f08cf0:	27bd0008 	addiu	sp,sp,8

Disassembly of section .data:

87f08cf4 <UPDATE_FW_NAME>:
87f08cf4:	87f08e80 	lh	s0,-29056(ra)

87f08cf8 <UPDATE_LOADER_NAME>:
87f08cf8:	87f08e90 	lh	s0,-29040(ra)

87f08cfc <RUN_FW_NAME>:
87f08cfc:	87f08ea0 	lh	s0,-29024(ra)

87f08d00 <LOADER_START_STR>:
87f08d00:	87f08eb0 	lh	s0,-29008(ra)

87f08d04 <UPDATE_CALFW_NAME>:
87f08d04:	87f08ed0 	lh	s0,-28976(ra)

87f08d08 <RWErrorMsg>:
87f08d08:	2f520a0d 	sltiu	s2,k0,2573
87f08d0c:	72652057 	udi7	s3,a1,a0,0x1
87f08d10:	0d726f72 	jal	85c9bdc8 <_loader_exec_compress_load_base+0x85c9b4c0>
87f08d14:	0000000a 	movz	zero,zero,zero

87f08d18 <LoaderErrorMsg>:
87f08d18:	6f4c0a0d 	0x6f4c0a0d
87f08d1c:	72656461 	0x72656461
87f08d20:	65686320 	0x65686320
87f08d24:	66206b63 	0x66206b63
87f08d28:	0d6c6961 	jal	85b1a584 <_loader_exec_compress_load_base+0x85b19c7c>
87f08d2c:	0000000a 	movz	zero,zero,zero

87f08d30 <FWErrorMsg>:
87f08d30:	57460a0d 	bnel	k0,a2,87f0b568 <_stack_start+0x2554>
87f08d34:	65686320 	0x65686320
87f08d38:	66206b63 	0x66206b63
87f08d3c:	0d6c6961 	jal	85b1a584 <_loader_exec_compress_load_base+0x85b19c7c>
87f08d40:	0000000a 	movz	zero,zero,zero

87f08d44 <uiBufAddr>:
87f08d44:	ffffffff 	sdc3	$31,-1(ra)

87f08d48 <g_uiDrvTmpBuffer>:
87f08d48:	00f00000 	0xf00000

87f08d4c <guiSpiClkDiv>:
87f08d4c:	00000013 	mtlo	zero

Disassembly of section .rodata.str1.4:

87f08d50 <.rodata.str1.4>:
87f08d50:	6c6c7546 	0x6c6c7546
87f08d54:	706d6f43 	0x706d6f43
87f08d58:	00000a0d 	break	0x0,0x28
87f08d5c:	436e6f4e 	c0	0x16e6f4e
87f08d60:	0d706d6f 	jal	85c1b5bc <_loader_exec_compress_load_base+0x85c1acb4>
87f08d64:	0000000a 	movz	zero,zero,zero
87f08d68:	35360a0d 	ori	s6,t1,0xa0d
87f08d6c:	445f4130 	0x445f4130
87f08d70:	5f335244 	0x5f335244
87f08d74:	5f30564c 	0x5f30564c
87f08d78:	34323031 	ori	s2,at,0x3031
87f08d7c:	3020624d 	andi	zero,at,0x624d
87f08d80:	39322f34 	xori	s2,t1,0x2f34
87f08d84:	3130322f 	andi	s0,t1,0x322f
87f08d88:	35312035 	ori	s1,t1,0x2035
87f08d8c:	3a32333a 	xori	s2,s1,0x333a
87f08d90:	0a0d3631 	j	8834d8c4 <_stack_start+0x4448b0>
87f08d94:	00000a0d 	break	0x0,0x28
87f08d98:	61660a0d 	0x61660a0d
87f08d9c:	0d0a6c69 	jal	8429b1a4 <_loader_exec_compress_load_base+0x8429a89c>
87f08da0:	00000000 	nop
87f08da4:	61550a0d 	0x61550a0d
87f08da8:	72644c20 	0x72644c20
87f08dac:	00000a0d 	break	0x0,0x28
87f08db0:	66206472 	0x66206472
87f08db4:	0d6c6961 	jal	85b1a584 <_loader_exec_compress_load_base+0x85b19c7c>
87f08db8:	0000000a 	movz	zero,zero,zero
87f08dbc:	69726576 	0x69726576
87f08dc0:	66207966 	0x66207966
87f08dc4:	0d6c6961 	jal	85b1a584 <_loader_exec_compress_load_base+0x85b19c7c>
87f08dc8:	0000000a 	movz	zero,zero,zero
87f08dcc:	64550a0d 	0x64550a0d
87f08dd0:	0d574620 	jal	855d1880 <_loader_exec_compress_load_base+0x855d0f78>
87f08dd4:	0000000a 	movz	zero,zero,zero
87f08dd8:	57462121 	bnel	k0,a2,87f11260 <_stack_start+0x824c>
87f08ddc:	444f4320 	0x444f4320
87f08de0:	49532045 	0x49532045
87f08de4:	3e20455a 	0x3e20455a
87f08de8:	414c4620 	0x414c4620
87f08dec:	53204853 	beqzl	t9,87f1af3c <_stack_start+0x11f28>
87f08df0:	21455a49 	addi	a1,t2,23113
87f08df4:	000a0d21 	0xa0d21
87f08df8:	69726576 	0x69726576
87f08dfc:	66207966 	0x66207966
87f08e00:	0a0d6c61 	j	8835b184 <_stack_start+0x452170>
87f08e04:	00000000 	nop
87f08e08:	46520a0d 	c1	0x520a0d
87f08e0c:	0a68736c 	j	89a1cdb0 <_stack_start+0x1b13d9c>
87f08e10:	0000000d 	break
87f08e14:	4c500a0d 	0x4c500a0d
87f08e18:	00000d0a 	0xd0a
87f08e1c:	4c460a0d 	0x4c460a0d
87f08e20:	00000d0a 	0xd0a
87f08e24:	43460a0d 	c0	0x1460a0d
87f08e28:	72706d6f 	0x72706d6f
87f08e2c:	0a737365 	j	89cdcd94 <_stack_start+0x1dd3d80>
87f08e30:	0000000d 	break
87f08e34:	73616c66 	0x73616c66
87f08e38:	706f2068 	0x706f2068
87f08e3c:	66206e65 	0x66206e65
87f08e40:	0d6c6961 	jal	85b1a584 <_loader_exec_compress_load_base+0x85b19c7c>
87f08e44:	0000000a 	movz	zero,zero,zero
87f08e48:	43520a0d 	c0	0x1520a0d
87f08e4c:	00000d0a 	0xd0a
87f08e50:	43500a0d 	c0	0x1500a0d
87f08e54:	0d0a706d 	jal	8429c1b4 <_loader_exec_compress_load_base+0x8429b8ac>
87f08e58:	00000000 	nop
87f08e5c:	724e0a0d 	0x724e0a0d
87f08e60:	0d0a6c6d 	jal	8429b1b4 <_loader_exec_compress_load_base+0x8429a8ac>
87f08e64:	00000000 	nop
87f08e68:	20460a0d 	addi	a2,v0,2573
87f08e6c:	706d6f63 	0x706d6f63
87f08e70:	73736572 	0x73736572
87f08e74:	00000d0a 	0xd0a
87f08e78:	3536444c 	ori	s6,t1,0x444c
87f08e7c:	00000030 	tge	zero,zero
87f08e80:	36395746 	ori	t9,s1,0x5746
87f08e84:	41303536 	0x41303536
87f08e88:	4e49422e 	msub.ps	$f8,$f18,$f8,$f9
87f08e8c:	00000000 	nop
87f08e90:	3639444c 	ori	t9,s1,0x444c
87f08e94:	41303536 	0x41303536
87f08e98:	4e49422e 	msub.ps	$f8,$f18,$f8,$f9
87f08e9c:	00000000 	nop
87f08ea0:	36395746 	ori	t9,s1,0x5746
87f08ea4:	54303536 	bnel	at,s0,87f16380 <_stack_start+0xd36c>
87f08ea8:	4e49422e 	msub.ps	$f8,$f18,$f8,$f9
87f08eac:	00000000 	nop
87f08eb0:	6f4c0a0d 	0x6f4c0a0d
87f08eb4:	72656461 	0x72656461
87f08eb8:	39544e20 	xori	s4,t2,0x4e20
87f08ebc:	30353636 	andi	s5,at,0x3636
87f08ec0:	61745320 	0x61745320
87f08ec4:	2e207472 	sltiu	zero,s1,29810
87f08ec8:	0a0d2e2e 	j	8834b8b8 <_stack_start+0x4428a4>
87f08ecc:	00000000 	nop
87f08ed0:	36395746 	ori	t9,s1,0x5746
87f08ed4:	43303536 	c0	0x1303536
87f08ed8:	4e49422e 	msub.ps	$f8,$f18,$f8,$f9
87f08edc:	00000000 	nop
87f08ee0:	00000052 	mflhxu	zero
87f08ee4:	2d532d49 	sltiu	s3,t2,11593
87f08ee8:	000a0d4d 	break	0xa,0x35
87f08eec:	31544146 	andi	s4,t2,0x4146
87f08ef0:	00000036 	tne	zero,zero
87f08ef4:	31544146 	andi	s4,t2,0x4146
87f08ef8:	00000032 	tlt	zero,zero
87f08efc:	33544146 	andi	s4,k0,0x4146
87f08f00:	00000032 	tlt	zero,zero
87f08f04:	2052434f 	addi	s2,v0,17231
87f08f08:	656d6974 	0x656d6974
87f08f0c:	0d74756f 	jal	85d1d5bc <_loader_exec_compress_load_base+0x85d1ccb4>
87f08f10:	0000000a 	movz	zero,zero,zero
87f08f14:	20697073 	addi	t1,v1,28787
87f08f18:	20676c66 	addi	a3,v1,27750
87f08f1c:	0d525245 	jal	85494914 <_loader_exec_compress_load_base+0x8549400c>
87f08f20:	0000000a 	movz	zero,zero,zero
87f08f24:	3d44494d 	0x3d44494d
87f08f28:	00000000 	nop
87f08f2c:	45505954 	bc1any4f	$fcc4,87f1f480 <_stack_start+0x1646c>
87f08f30:	0000003d 	0x3d
87f08f34:	5a49532c 	0x5a49532c
87f08f38:	00003d45 	0x3d45

Disassembly of section .bss:

87f08f3c <BaseOfStack>:
87f08f3c:	00000000 	nop

87f08f40 <TopOfStack>:
87f08f40:	00000000 	nop

87f08f44 <uiCnt.1287>:
87f08f44:	00000000 	nop

87f08f48 <g_uiBootRevservedNandBufAddr>:
87f08f48:	00000000 	nop

87f08f4c <g_uiUpdateMainBinBufAddr>:
87f08f4c:	00000000 	nop

87f08f50 <g_uiUpdateBootloaderBufAddr>:
87f08f50:	00000000 	nop

87f08f54 <g_uiFWTestBinBufAddr>:
87f08f54:	00000000 	nop

87f08f58 <g_uiTmpBufferAddr>:
87f08f58:	00000000 	nop

87f08f5c <g_heapBufferAddr>:
87f08f5c:	00000000 	nop

87f08f60 <gFatAccessCallBack>:
87f08f60:	00000000 	nop

87f08f64 <ui32FATPages>:
87f08f64:	00000000 	nop

87f08f68 <uiBufSize>:
87f08f68:	00000000 	nop

87f08f6c <uiFATBufferSize>:
87f08f6c:	00000000 	nop

87f08f70 <FileSys>:
	...

87f08fd0 <RootFileHandle>:
	...

87f08fe0 <SDContext>:
	...

87f08fe8 <bQuadConfigured>:
87f08fe8:	00000000 	nop

87f08fec <gSpiIdentifyCallBack>:
87f08fec:	00000000 	nop

87f08ff0 <gSpiProgramCallBack>:
87f08ff0:	00000000 	nop

87f08ff4 <uiSpiFlashSize>:
87f08ff4:	00000000 	nop

87f08ff8 <bSupportAAI>:
87f08ff8:	00000000 	nop

87f08ffc <bSupportEWSR>:
87f08ffc:	00000000 	nop

87f09000 <uiQuadReadType>:
87f09000:	00000000 	nop

87f09004 <bDualRead>:
87f09004:	00000000 	nop

87f09008 <gStr>:
	...

Disassembly of section .reginfo:

00000000 <.reginfo>:
   0:	e01f00fc 	sc	ra,252(zero)
	...

Disassembly of section .comment:

00000000 <.comment>:
   0:	43434700 	c0	0x1434700
   4:	5328203a 	beql	t9,t0,80f0 <_loader_exec_compress_load_base+0x77e8>
   8:	6372756f 	0x6372756f
   c:	20797265 	addi	t9,v1,29285
  10:	202b2b47 	addi	t3,at,11079
  14:	6574694c 	0x6574694c
  18:	342e3420 	ori	t6,at,0x3420
  1c:	3530332d 	ori	s0,t1,0x332d
  20:	2e342029 	sltiu	s4,s1,8233
  24:	00312e34 	teq	at,s1,0xb8
  28:	43434700 	c0	0x1434700
  2c:	5328203a 	beql	t9,t0,8118 <_loader_exec_compress_load_base+0x7810>
  30:	6372756f 	0x6372756f
  34:	20797265 	addi	t9,v1,29285
  38:	202b2b47 	addi	t3,at,11079
  3c:	6574694c 	0x6574694c
  40:	342e3420 	ori	t6,at,0x3420
  44:	3530332d 	ori	s0,t1,0x332d
  48:	2e342029 	sltiu	s4,s1,8233
  4c:	00312e34 	teq	at,s1,0xb8
  50:	43434700 	c0	0x1434700
  54:	5328203a 	beql	t9,t0,8140 <_loader_exec_compress_load_base+0x7838>
  58:	6372756f 	0x6372756f
  5c:	20797265 	addi	t9,v1,29285
  60:	202b2b47 	addi	t3,at,11079
  64:	6574694c 	0x6574694c
  68:	342e3420 	ori	t6,at,0x3420
  6c:	3530332d 	ori	s0,t1,0x332d
  70:	2e342029 	sltiu	s4,s1,8233
  74:	00312e34 	teq	at,s1,0xb8
  78:	43434700 	c0	0x1434700
  7c:	5328203a 	beql	t9,t0,8168 <_loader_exec_compress_load_base+0x7860>
  80:	6372756f 	0x6372756f
  84:	20797265 	addi	t9,v1,29285
  88:	202b2b47 	addi	t3,at,11079
  8c:	6574694c 	0x6574694c
  90:	342e3420 	ori	t6,at,0x3420
  94:	3530332d 	ori	s0,t1,0x332d
  98:	2e342029 	sltiu	s4,s1,8233
  9c:	00312e34 	teq	at,s1,0xb8
  a0:	43434700 	c0	0x1434700
  a4:	5328203a 	beql	t9,t0,8190 <_loader_exec_compress_load_base+0x7888>
  a8:	6372756f 	0x6372756f
  ac:	20797265 	addi	t9,v1,29285
  b0:	202b2b47 	addi	t3,at,11079
  b4:	6574694c 	0x6574694c
  b8:	342e3420 	ori	t6,at,0x3420
  bc:	3530332d 	ori	s0,t1,0x332d
  c0:	2e342029 	sltiu	s4,s1,8233
  c4:	00312e34 	teq	at,s1,0xb8
  c8:	43434700 	c0	0x1434700
  cc:	5328203a 	beql	t9,t0,81b8 <_loader_exec_compress_load_base+0x78b0>
  d0:	6372756f 	0x6372756f
  d4:	20797265 	addi	t9,v1,29285
  d8:	202b2b47 	addi	t3,at,11079
  dc:	6574694c 	0x6574694c
  e0:	342e3420 	ori	t6,at,0x3420
  e4:	3530332d 	ori	s0,t1,0x332d
  e8:	2e342029 	sltiu	s4,s1,8233
  ec:	00312e34 	teq	at,s1,0xb8
  f0:	43434700 	c0	0x1434700
  f4:	5328203a 	beql	t9,t0,81e0 <_loader_exec_compress_load_base+0x78d8>
  f8:	6372756f 	0x6372756f
  fc:	20797265 	addi	t9,v1,29285
 100:	202b2b47 	addi	t3,at,11079
 104:	6574694c 	0x6574694c
 108:	342e3420 	ori	t6,at,0x3420
 10c:	3530332d 	ori	s0,t1,0x332d
 110:	2e342029 	sltiu	s4,s1,8233
 114:	00312e34 	teq	at,s1,0xb8
 118:	43434700 	c0	0x1434700
 11c:	5328203a 	beql	t9,t0,8208 <_loader_exec_compress_load_base+0x7900>
 120:	6372756f 	0x6372756f
 124:	20797265 	addi	t9,v1,29285
 128:	202b2b47 	addi	t3,at,11079
 12c:	6574694c 	0x6574694c
 130:	342e3420 	ori	t6,at,0x3420
 134:	3530332d 	ori	s0,t1,0x332d
 138:	2e342029 	sltiu	s4,s1,8233
 13c:	00312e34 	teq	at,s1,0xb8
 140:	43434700 	c0	0x1434700
 144:	5328203a 	beql	t9,t0,8230 <_loader_exec_compress_load_base+0x7928>
 148:	6372756f 	0x6372756f
 14c:	20797265 	addi	t9,v1,29285
 150:	202b2b47 	addi	t3,at,11079
 154:	6574694c 	0x6574694c
 158:	342e3420 	ori	t6,at,0x3420
 15c:	3530332d 	ori	s0,t1,0x332d
 160:	2e342029 	sltiu	s4,s1,8233
 164:	00312e34 	teq	at,s1,0xb8
 168:	43434700 	c0	0x1434700
 16c:	5328203a 	beql	t9,t0,8258 <_loader_exec_compress_load_base+0x7950>
 170:	6372756f 	0x6372756f
 174:	20797265 	addi	t9,v1,29285
 178:	202b2b47 	addi	t3,at,11079
 17c:	6574694c 	0x6574694c
 180:	342e3420 	ori	t6,at,0x3420
 184:	3530332d 	ori	s0,t1,0x332d
 188:	2e342029 	sltiu	s4,s1,8233
 18c:	00312e34 	teq	at,s1,0xb8
 190:	43434700 	c0	0x1434700
 194:	5328203a 	beql	t9,t0,8280 <_loader_exec_compress_load_base+0x7978>
 198:	6372756f 	0x6372756f
 19c:	20797265 	addi	t9,v1,29285
 1a0:	202b2b47 	addi	t3,at,11079
 1a4:	6574694c 	0x6574694c
 1a8:	342e3420 	ori	t6,at,0x3420
 1ac:	3530332d 	ori	s0,t1,0x332d
 1b0:	2e342029 	sltiu	s4,s1,8233
 1b4:	00312e34 	teq	at,s1,0xb8
 1b8:	43434700 	c0	0x1434700
 1bc:	5328203a 	beql	t9,t0,82a8 <_loader_exec_compress_load_base+0x79a0>
 1c0:	6372756f 	0x6372756f
 1c4:	20797265 	addi	t9,v1,29285
 1c8:	202b2b47 	addi	t3,at,11079
 1cc:	6574694c 	0x6574694c
 1d0:	342e3420 	ori	t6,at,0x3420
 1d4:	3530332d 	ori	s0,t1,0x332d
 1d8:	2e342029 	sltiu	s4,s1,8233
 1dc:	00312e34 	teq	at,s1,0xb8
 1e0:	43434700 	c0	0x1434700
 1e4:	5328203a 	beql	t9,t0,82d0 <_loader_exec_compress_load_base+0x79c8>
 1e8:	6372756f 	0x6372756f
 1ec:	20797265 	addi	t9,v1,29285
 1f0:	202b2b47 	addi	t3,at,11079
 1f4:	6574694c 	0x6574694c
 1f8:	342e3420 	ori	t6,at,0x3420
 1fc:	3530332d 	ori	s0,t1,0x332d
 200:	2e342029 	sltiu	s4,s1,8233
 204:	00312e34 	teq	at,s1,0xb8
 208:	43434700 	c0	0x1434700
 20c:	5328203a 	beql	t9,t0,82f8 <_loader_exec_compress_load_base+0x79f0>
 210:	6372756f 	0x6372756f
 214:	20797265 	addi	t9,v1,29285
 218:	202b2b47 	addi	t3,at,11079
 21c:	6574694c 	0x6574694c
 220:	342e3420 	ori	t6,at,0x3420
 224:	3530332d 	ori	s0,t1,0x332d
 228:	2e342029 	sltiu	s4,s1,8233
 22c:	00312e34 	teq	at,s1,0xb8
 230:	43434700 	c0	0x1434700
 234:	5328203a 	beql	t9,t0,8320 <_loader_exec_compress_load_base+0x7a18>
 238:	6372756f 	0x6372756f
 23c:	20797265 	addi	t9,v1,29285
 240:	202b2b47 	addi	t3,at,11079
 244:	6574694c 	0x6574694c
 248:	342e3420 	ori	t6,at,0x3420
 24c:	3530332d 	ori	s0,t1,0x332d
 250:	2e342029 	sltiu	s4,s1,8233
 254:	00312e34 	teq	at,s1,0xb8
 258:	43434700 	c0	0x1434700
 25c:	5328203a 	beql	t9,t0,8348 <_loader_exec_compress_load_base+0x7a40>
 260:	6372756f 	0x6372756f
 264:	20797265 	addi	t9,v1,29285
 268:	202b2b47 	addi	t3,at,11079
 26c:	6574694c 	0x6574694c
 270:	342e3420 	ori	t6,at,0x3420
 274:	3530332d 	ori	s0,t1,0x332d
 278:	2e342029 	sltiu	s4,s1,8233
 27c:	00312e34 	teq	at,s1,0xb8
 280:	43434700 	c0	0x1434700
 284:	5328203a 	beql	t9,t0,8370 <_loader_exec_compress_load_base+0x7a68>
 288:	6372756f 	0x6372756f
 28c:	20797265 	addi	t9,v1,29285
 290:	202b2b47 	addi	t3,at,11079
 294:	6574694c 	0x6574694c
 298:	342e3420 	ori	t6,at,0x3420
 29c:	3530332d 	ori	s0,t1,0x332d
 2a0:	2e342029 	sltiu	s4,s1,8233
 2a4:	00312e34 	teq	at,s1,0xb8

Disassembly of section .gnu.attributes:

00000000 <.gnu.attributes>:
   0:	00000f41 	0xf41
   4:	756e6700 	jalx	5b99c00 <_loader_exec_compress_load_base+0x5b992f8>
   8:	00070100 	sll	zero,a3,0x4
   c:	03040000 	0x3040000
